ARM GAS  /tmp/ccTcoz65.s 			page 1


   1              		.syntax unified
   2              		.cpu cortex-m0
   3              		.fpu softvfp
   4              		.eabi_attribute 20, 1
   5              		.eabi_attribute 21, 1
   6              		.eabi_attribute 23, 3
   7              		.eabi_attribute 24, 1
   8              		.eabi_attribute 25, 1
   9              		.eabi_attribute 26, 1
  10              		.eabi_attribute 30, 2
  11              		.eabi_attribute 34, 0
  12              		.eabi_attribute 18, 4
  13              		.thumb
  14              		.syntax unified
  15              		.file	"stm32f0xx_hal_pcd.c"
  16              		.text
  17              	.Ltext0:
  18              		.cfi_sections	.debug_frame
  19              		.section	.text.HAL_PCD_MspInit,"ax",%progbits
  20              		.align	2
  21              		.weak	HAL_PCD_MspInit
  22              		.code	16
  23              		.thumb_func
  25              	HAL_PCD_MspInit:
  26              	.LFB90:
  27              		.cfi_startproc
  28              		@ args = 0, pretend = 0, frame = 0
  29              		@ frame_needed = 0, uses_anonymous_args = 0
  30              		@ link register save eliminated.
  31              		@ sp needed
  32 0000 7047     		bx	lr
  33              		.cfi_endproc
  34              	.LFE90:
  36 0002 C046     		.section	.text.HAL_PCD_Init,"ax",%progbits
  37              		.align	2
  38              		.global	HAL_PCD_Init
  39              		.code	16
  40              		.thumb_func
  42              	HAL_PCD_Init:
  43              	.LFB40:
  44              		.file 1 "Drivers/STM32F0xx_HAL_Driver/Src/stm32f0xx_hal_pcd.c"
   1:Drivers/STM32F0xx_HAL_Driver/Src/stm32f0xx_hal_pcd.c **** /**
   2:Drivers/STM32F0xx_HAL_Driver/Src/stm32f0xx_hal_pcd.c ****   ******************************************************************************
   3:Drivers/STM32F0xx_HAL_Driver/Src/stm32f0xx_hal_pcd.c ****   * @file    stm32f0xx_hal_pcd.c
   4:Drivers/STM32F0xx_HAL_Driver/Src/stm32f0xx_hal_pcd.c ****   * @author  MCD Application Team
   5:Drivers/STM32F0xx_HAL_Driver/Src/stm32f0xx_hal_pcd.c ****   * @brief   PCD HAL module driver.
   6:Drivers/STM32F0xx_HAL_Driver/Src/stm32f0xx_hal_pcd.c ****   *          This file provides firmware functions to manage the following
   7:Drivers/STM32F0xx_HAL_Driver/Src/stm32f0xx_hal_pcd.c ****   *          functionalities of the USB Peripheral Controller:
   8:Drivers/STM32F0xx_HAL_Driver/Src/stm32f0xx_hal_pcd.c ****   *           + Initialization and de-initialization functions
   9:Drivers/STM32F0xx_HAL_Driver/Src/stm32f0xx_hal_pcd.c ****   *           + IO operation functions
  10:Drivers/STM32F0xx_HAL_Driver/Src/stm32f0xx_hal_pcd.c ****   *           + Peripheral Control functions
  11:Drivers/STM32F0xx_HAL_Driver/Src/stm32f0xx_hal_pcd.c ****   *           + Peripheral State functions
  12:Drivers/STM32F0xx_HAL_Driver/Src/stm32f0xx_hal_pcd.c ****   *
  13:Drivers/STM32F0xx_HAL_Driver/Src/stm32f0xx_hal_pcd.c ****   @verbatim
  14:Drivers/STM32F0xx_HAL_Driver/Src/stm32f0xx_hal_pcd.c ****   ==============================================================================
  15:Drivers/STM32F0xx_HAL_Driver/Src/stm32f0xx_hal_pcd.c ****                     ##### How to use this driver #####
  16:Drivers/STM32F0xx_HAL_Driver/Src/stm32f0xx_hal_pcd.c ****   ==============================================================================
ARM GAS  /tmp/ccTcoz65.s 			page 2


  17:Drivers/STM32F0xx_HAL_Driver/Src/stm32f0xx_hal_pcd.c ****     [..]
  18:Drivers/STM32F0xx_HAL_Driver/Src/stm32f0xx_hal_pcd.c ****       The PCD HAL driver can be used as follows:
  19:Drivers/STM32F0xx_HAL_Driver/Src/stm32f0xx_hal_pcd.c **** 
  20:Drivers/STM32F0xx_HAL_Driver/Src/stm32f0xx_hal_pcd.c ****      (#) Declare a PCD_HandleTypeDef handle structure, for example:
  21:Drivers/STM32F0xx_HAL_Driver/Src/stm32f0xx_hal_pcd.c ****          PCD_HandleTypeDef  hpcd;
  22:Drivers/STM32F0xx_HAL_Driver/Src/stm32f0xx_hal_pcd.c **** 
  23:Drivers/STM32F0xx_HAL_Driver/Src/stm32f0xx_hal_pcd.c ****      (#) Fill parameters of Init structure in HCD handle
  24:Drivers/STM32F0xx_HAL_Driver/Src/stm32f0xx_hal_pcd.c **** 
  25:Drivers/STM32F0xx_HAL_Driver/Src/stm32f0xx_hal_pcd.c ****      (#) Call HAL_PCD_Init() API to initialize the PCD peripheral (Core, Device core, ...)
  26:Drivers/STM32F0xx_HAL_Driver/Src/stm32f0xx_hal_pcd.c **** 
  27:Drivers/STM32F0xx_HAL_Driver/Src/stm32f0xx_hal_pcd.c ****      (#) Initialize the PCD low level resources through the HAL_PCD_MspInit() API:
  28:Drivers/STM32F0xx_HAL_Driver/Src/stm32f0xx_hal_pcd.c ****          (##) Enable the PCD/USB Low Level interface clock using
  29:Drivers/STM32F0xx_HAL_Driver/Src/stm32f0xx_hal_pcd.c ****               (+++) __HAL_RCC_USB_CLK_ENABLE(); For USB Device only FS peripheral
  30:Drivers/STM32F0xx_HAL_Driver/Src/stm32f0xx_hal_pcd.c **** 
  31:Drivers/STM32F0xx_HAL_Driver/Src/stm32f0xx_hal_pcd.c ****          (##) Initialize the related GPIO clocks
  32:Drivers/STM32F0xx_HAL_Driver/Src/stm32f0xx_hal_pcd.c ****          (##) Configure PCD pin-out
  33:Drivers/STM32F0xx_HAL_Driver/Src/stm32f0xx_hal_pcd.c ****          (##) Configure PCD NVIC interrupt
  34:Drivers/STM32F0xx_HAL_Driver/Src/stm32f0xx_hal_pcd.c **** 
  35:Drivers/STM32F0xx_HAL_Driver/Src/stm32f0xx_hal_pcd.c ****      (#)Associate the Upper USB device stack to the HAL PCD Driver:
  36:Drivers/STM32F0xx_HAL_Driver/Src/stm32f0xx_hal_pcd.c ****          (##) hpcd.pData = pdev;
  37:Drivers/STM32F0xx_HAL_Driver/Src/stm32f0xx_hal_pcd.c **** 
  38:Drivers/STM32F0xx_HAL_Driver/Src/stm32f0xx_hal_pcd.c ****      (#)Enable PCD transmission and reception:
  39:Drivers/STM32F0xx_HAL_Driver/Src/stm32f0xx_hal_pcd.c ****          (##) HAL_PCD_Start();
  40:Drivers/STM32F0xx_HAL_Driver/Src/stm32f0xx_hal_pcd.c **** 
  41:Drivers/STM32F0xx_HAL_Driver/Src/stm32f0xx_hal_pcd.c ****   @endverbatim
  42:Drivers/STM32F0xx_HAL_Driver/Src/stm32f0xx_hal_pcd.c ****   ******************************************************************************
  43:Drivers/STM32F0xx_HAL_Driver/Src/stm32f0xx_hal_pcd.c ****   * @attention
  44:Drivers/STM32F0xx_HAL_Driver/Src/stm32f0xx_hal_pcd.c ****   *
  45:Drivers/STM32F0xx_HAL_Driver/Src/stm32f0xx_hal_pcd.c ****   * <h2><center>&copy; Copyright (c) 2016 STMicroelectronics.
  46:Drivers/STM32F0xx_HAL_Driver/Src/stm32f0xx_hal_pcd.c ****   * All rights reserved.</center></h2>
  47:Drivers/STM32F0xx_HAL_Driver/Src/stm32f0xx_hal_pcd.c ****   *
  48:Drivers/STM32F0xx_HAL_Driver/Src/stm32f0xx_hal_pcd.c ****   * This software component is licensed by ST under BSD 3-Clause license,
  49:Drivers/STM32F0xx_HAL_Driver/Src/stm32f0xx_hal_pcd.c ****   * the "License"; You may not use this file except in compliance with the
  50:Drivers/STM32F0xx_HAL_Driver/Src/stm32f0xx_hal_pcd.c ****   * License. You may obtain a copy of the License at:
  51:Drivers/STM32F0xx_HAL_Driver/Src/stm32f0xx_hal_pcd.c ****   *                        opensource.org/licenses/BSD-3-Clause
  52:Drivers/STM32F0xx_HAL_Driver/Src/stm32f0xx_hal_pcd.c ****   *
  53:Drivers/STM32F0xx_HAL_Driver/Src/stm32f0xx_hal_pcd.c ****   ******************************************************************************
  54:Drivers/STM32F0xx_HAL_Driver/Src/stm32f0xx_hal_pcd.c ****   */
  55:Drivers/STM32F0xx_HAL_Driver/Src/stm32f0xx_hal_pcd.c **** 
  56:Drivers/STM32F0xx_HAL_Driver/Src/stm32f0xx_hal_pcd.c **** /* Includes ------------------------------------------------------------------*/
  57:Drivers/STM32F0xx_HAL_Driver/Src/stm32f0xx_hal_pcd.c **** #include "stm32f0xx_hal.h"
  58:Drivers/STM32F0xx_HAL_Driver/Src/stm32f0xx_hal_pcd.c **** 
  59:Drivers/STM32F0xx_HAL_Driver/Src/stm32f0xx_hal_pcd.c **** /** @addtogroup STM32F0xx_HAL_Driver
  60:Drivers/STM32F0xx_HAL_Driver/Src/stm32f0xx_hal_pcd.c ****   * @{
  61:Drivers/STM32F0xx_HAL_Driver/Src/stm32f0xx_hal_pcd.c ****   */
  62:Drivers/STM32F0xx_HAL_Driver/Src/stm32f0xx_hal_pcd.c **** 
  63:Drivers/STM32F0xx_HAL_Driver/Src/stm32f0xx_hal_pcd.c **** /** @defgroup PCD PCD
  64:Drivers/STM32F0xx_HAL_Driver/Src/stm32f0xx_hal_pcd.c ****   * @brief PCD HAL module driver
  65:Drivers/STM32F0xx_HAL_Driver/Src/stm32f0xx_hal_pcd.c ****   * @{
  66:Drivers/STM32F0xx_HAL_Driver/Src/stm32f0xx_hal_pcd.c ****   */
  67:Drivers/STM32F0xx_HAL_Driver/Src/stm32f0xx_hal_pcd.c **** 
  68:Drivers/STM32F0xx_HAL_Driver/Src/stm32f0xx_hal_pcd.c **** #ifdef HAL_PCD_MODULE_ENABLED
  69:Drivers/STM32F0xx_HAL_Driver/Src/stm32f0xx_hal_pcd.c **** 
  70:Drivers/STM32F0xx_HAL_Driver/Src/stm32f0xx_hal_pcd.c **** #if defined (USB)
  71:Drivers/STM32F0xx_HAL_Driver/Src/stm32f0xx_hal_pcd.c **** 
  72:Drivers/STM32F0xx_HAL_Driver/Src/stm32f0xx_hal_pcd.c **** /* Private types -------------------------------------------------------------*/
  73:Drivers/STM32F0xx_HAL_Driver/Src/stm32f0xx_hal_pcd.c **** /* Private variables ---------------------------------------------------------*/
ARM GAS  /tmp/ccTcoz65.s 			page 3


  74:Drivers/STM32F0xx_HAL_Driver/Src/stm32f0xx_hal_pcd.c **** /* Private constants ---------------------------------------------------------*/
  75:Drivers/STM32F0xx_HAL_Driver/Src/stm32f0xx_hal_pcd.c **** /* Private macros ------------------------------------------------------------*/
  76:Drivers/STM32F0xx_HAL_Driver/Src/stm32f0xx_hal_pcd.c **** /** @defgroup PCD_Private_Macros PCD Private Macros
  77:Drivers/STM32F0xx_HAL_Driver/Src/stm32f0xx_hal_pcd.c ****   * @{
  78:Drivers/STM32F0xx_HAL_Driver/Src/stm32f0xx_hal_pcd.c ****   */
  79:Drivers/STM32F0xx_HAL_Driver/Src/stm32f0xx_hal_pcd.c **** #define PCD_MIN(a, b)  (((a) < (b)) ? (a) : (b))
  80:Drivers/STM32F0xx_HAL_Driver/Src/stm32f0xx_hal_pcd.c **** #define PCD_MAX(a, b)  (((a) > (b)) ? (a) : (b))
  81:Drivers/STM32F0xx_HAL_Driver/Src/stm32f0xx_hal_pcd.c **** /**
  82:Drivers/STM32F0xx_HAL_Driver/Src/stm32f0xx_hal_pcd.c ****   * @}
  83:Drivers/STM32F0xx_HAL_Driver/Src/stm32f0xx_hal_pcd.c ****   */
  84:Drivers/STM32F0xx_HAL_Driver/Src/stm32f0xx_hal_pcd.c **** 
  85:Drivers/STM32F0xx_HAL_Driver/Src/stm32f0xx_hal_pcd.c **** /* Private functions prototypes ----------------------------------------------*/
  86:Drivers/STM32F0xx_HAL_Driver/Src/stm32f0xx_hal_pcd.c **** /** @defgroup PCD_Private_Functions PCD Private Functions
  87:Drivers/STM32F0xx_HAL_Driver/Src/stm32f0xx_hal_pcd.c ****   * @{
  88:Drivers/STM32F0xx_HAL_Driver/Src/stm32f0xx_hal_pcd.c ****   */
  89:Drivers/STM32F0xx_HAL_Driver/Src/stm32f0xx_hal_pcd.c **** 
  90:Drivers/STM32F0xx_HAL_Driver/Src/stm32f0xx_hal_pcd.c **** static HAL_StatusTypeDef PCD_EP_ISR_Handler(PCD_HandleTypeDef *hpcd);
  91:Drivers/STM32F0xx_HAL_Driver/Src/stm32f0xx_hal_pcd.c **** 
  92:Drivers/STM32F0xx_HAL_Driver/Src/stm32f0xx_hal_pcd.c **** /**
  93:Drivers/STM32F0xx_HAL_Driver/Src/stm32f0xx_hal_pcd.c ****   * @}
  94:Drivers/STM32F0xx_HAL_Driver/Src/stm32f0xx_hal_pcd.c ****   */
  95:Drivers/STM32F0xx_HAL_Driver/Src/stm32f0xx_hal_pcd.c **** 
  96:Drivers/STM32F0xx_HAL_Driver/Src/stm32f0xx_hal_pcd.c **** /* Exported functions --------------------------------------------------------*/
  97:Drivers/STM32F0xx_HAL_Driver/Src/stm32f0xx_hal_pcd.c **** /** @defgroup PCD_Exported_Functions PCD Exported Functions
  98:Drivers/STM32F0xx_HAL_Driver/Src/stm32f0xx_hal_pcd.c ****   * @{
  99:Drivers/STM32F0xx_HAL_Driver/Src/stm32f0xx_hal_pcd.c ****   */
 100:Drivers/STM32F0xx_HAL_Driver/Src/stm32f0xx_hal_pcd.c **** 
 101:Drivers/STM32F0xx_HAL_Driver/Src/stm32f0xx_hal_pcd.c **** /** @defgroup PCD_Exported_Functions_Group1 Initialization and de-initialization functions
 102:Drivers/STM32F0xx_HAL_Driver/Src/stm32f0xx_hal_pcd.c ****  *  @brief    Initialization and Configuration functions
 103:Drivers/STM32F0xx_HAL_Driver/Src/stm32f0xx_hal_pcd.c ****  *
 104:Drivers/STM32F0xx_HAL_Driver/Src/stm32f0xx_hal_pcd.c **** @verbatim
 105:Drivers/STM32F0xx_HAL_Driver/Src/stm32f0xx_hal_pcd.c ****  ===============================================================================
 106:Drivers/STM32F0xx_HAL_Driver/Src/stm32f0xx_hal_pcd.c ****             ##### Initialization and de-initialization functions #####
 107:Drivers/STM32F0xx_HAL_Driver/Src/stm32f0xx_hal_pcd.c ****  ===============================================================================
 108:Drivers/STM32F0xx_HAL_Driver/Src/stm32f0xx_hal_pcd.c ****     [..]  This section provides functions allowing to:
 109:Drivers/STM32F0xx_HAL_Driver/Src/stm32f0xx_hal_pcd.c **** 
 110:Drivers/STM32F0xx_HAL_Driver/Src/stm32f0xx_hal_pcd.c **** @endverbatim
 111:Drivers/STM32F0xx_HAL_Driver/Src/stm32f0xx_hal_pcd.c ****   * @{
 112:Drivers/STM32F0xx_HAL_Driver/Src/stm32f0xx_hal_pcd.c ****   */
 113:Drivers/STM32F0xx_HAL_Driver/Src/stm32f0xx_hal_pcd.c **** 
 114:Drivers/STM32F0xx_HAL_Driver/Src/stm32f0xx_hal_pcd.c **** /**
 115:Drivers/STM32F0xx_HAL_Driver/Src/stm32f0xx_hal_pcd.c ****   * @brief  Initializes the PCD according to the specified
 116:Drivers/STM32F0xx_HAL_Driver/Src/stm32f0xx_hal_pcd.c ****   *         parameters in the PCD_InitTypeDef and initialize the associated handle.
 117:Drivers/STM32F0xx_HAL_Driver/Src/stm32f0xx_hal_pcd.c ****   * @param  hpcd PCD handle
 118:Drivers/STM32F0xx_HAL_Driver/Src/stm32f0xx_hal_pcd.c ****   * @retval HAL status
 119:Drivers/STM32F0xx_HAL_Driver/Src/stm32f0xx_hal_pcd.c ****   */
 120:Drivers/STM32F0xx_HAL_Driver/Src/stm32f0xx_hal_pcd.c **** HAL_StatusTypeDef HAL_PCD_Init(PCD_HandleTypeDef *hpcd)
 121:Drivers/STM32F0xx_HAL_Driver/Src/stm32f0xx_hal_pcd.c **** {
  45              		.loc 1 121 0
  46              		.cfi_startproc
  47              		@ args = 0, pretend = 0, frame = 0
  48              		@ frame_needed = 0, uses_anonymous_args = 0
  49              	.LVL0:
  50              		.loc 1 121 0
  51 0000 70B5     		push	{r4, r5, r6, lr}
  52              	.LCFI0:
  53              		.cfi_def_cfa_offset 16
ARM GAS  /tmp/ccTcoz65.s 			page 4


  54              		.cfi_offset 4, -16
  55              		.cfi_offset 5, -12
  56              		.cfi_offset 6, -8
  57              		.cfi_offset 14, -4
  58 0002 0400     		movs	r4, r0
  59 0004 86B0     		sub	sp, sp, #24
  60              	.LCFI1:
  61              		.cfi_def_cfa_offset 40
 122:Drivers/STM32F0xx_HAL_Driver/Src/stm32f0xx_hal_pcd.c ****   uint8_t i;
 123:Drivers/STM32F0xx_HAL_Driver/Src/stm32f0xx_hal_pcd.c **** 
 124:Drivers/STM32F0xx_HAL_Driver/Src/stm32f0xx_hal_pcd.c ****   /* Check the PCD handle allocation */
 125:Drivers/STM32F0xx_HAL_Driver/Src/stm32f0xx_hal_pcd.c ****   if (hpcd == NULL)
  62              		.loc 1 125 0
  63 0006 0028     		cmp	r0, #0
  64 0008 5DD0     		beq	.L10
 126:Drivers/STM32F0xx_HAL_Driver/Src/stm32f0xx_hal_pcd.c ****   {
 127:Drivers/STM32F0xx_HAL_Driver/Src/stm32f0xx_hal_pcd.c ****     return HAL_ERROR;
 128:Drivers/STM32F0xx_HAL_Driver/Src/stm32f0xx_hal_pcd.c ****   }
 129:Drivers/STM32F0xx_HAL_Driver/Src/stm32f0xx_hal_pcd.c **** 
 130:Drivers/STM32F0xx_HAL_Driver/Src/stm32f0xx_hal_pcd.c ****   /* Check the parameters */
 131:Drivers/STM32F0xx_HAL_Driver/Src/stm32f0xx_hal_pcd.c ****   assert_param(IS_PCD_ALL_INSTANCE(hpcd->Instance));
 132:Drivers/STM32F0xx_HAL_Driver/Src/stm32f0xx_hal_pcd.c **** 
 133:Drivers/STM32F0xx_HAL_Driver/Src/stm32f0xx_hal_pcd.c ****   if (hpcd->State == HAL_PCD_STATE_RESET)
  65              		.loc 1 133 0
  66 000a 304B     		ldr	r3, .L18
  67 000c C35C     		ldrb	r3, [r0, r3]
  68 000e DBB2     		uxtb	r3, r3
  69 0010 002B     		cmp	r3, #0
  70 0012 4ED0     		beq	.L16
  71              	.LVL1:
  72              	.L4:
 134:Drivers/STM32F0xx_HAL_Driver/Src/stm32f0xx_hal_pcd.c ****   {
 135:Drivers/STM32F0xx_HAL_Driver/Src/stm32f0xx_hal_pcd.c ****     /* Allocate lock resource and initialize it */
 136:Drivers/STM32F0xx_HAL_Driver/Src/stm32f0xx_hal_pcd.c ****     hpcd->Lock = HAL_UNLOCKED;
 137:Drivers/STM32F0xx_HAL_Driver/Src/stm32f0xx_hal_pcd.c **** 
 138:Drivers/STM32F0xx_HAL_Driver/Src/stm32f0xx_hal_pcd.c **** #if (USE_HAL_PCD_REGISTER_CALLBACKS == 1U)
 139:Drivers/STM32F0xx_HAL_Driver/Src/stm32f0xx_hal_pcd.c ****     hpcd->SOFCallback = HAL_PCD_SOFCallback;
 140:Drivers/STM32F0xx_HAL_Driver/Src/stm32f0xx_hal_pcd.c ****     hpcd->SetupStageCallback = HAL_PCD_SetupStageCallback;
 141:Drivers/STM32F0xx_HAL_Driver/Src/stm32f0xx_hal_pcd.c ****     hpcd->ResetCallback = HAL_PCD_ResetCallback;
 142:Drivers/STM32F0xx_HAL_Driver/Src/stm32f0xx_hal_pcd.c ****     hpcd->SuspendCallback = HAL_PCD_SuspendCallback;
 143:Drivers/STM32F0xx_HAL_Driver/Src/stm32f0xx_hal_pcd.c ****     hpcd->ResumeCallback = HAL_PCD_ResumeCallback;
 144:Drivers/STM32F0xx_HAL_Driver/Src/stm32f0xx_hal_pcd.c ****     hpcd->ConnectCallback = HAL_PCD_ConnectCallback;
 145:Drivers/STM32F0xx_HAL_Driver/Src/stm32f0xx_hal_pcd.c ****     hpcd->DisconnectCallback = HAL_PCD_DisconnectCallback;
 146:Drivers/STM32F0xx_HAL_Driver/Src/stm32f0xx_hal_pcd.c ****     hpcd->DataOutStageCallback = HAL_PCD_DataOutStageCallback;
 147:Drivers/STM32F0xx_HAL_Driver/Src/stm32f0xx_hal_pcd.c ****     hpcd->DataInStageCallback = HAL_PCD_DataInStageCallback;
 148:Drivers/STM32F0xx_HAL_Driver/Src/stm32f0xx_hal_pcd.c ****     hpcd->ISOOUTIncompleteCallback = HAL_PCD_ISOOUTIncompleteCallback;
 149:Drivers/STM32F0xx_HAL_Driver/Src/stm32f0xx_hal_pcd.c ****     hpcd->ISOINIncompleteCallback = HAL_PCD_ISOINIncompleteCallback;
 150:Drivers/STM32F0xx_HAL_Driver/Src/stm32f0xx_hal_pcd.c ****     hpcd->LPMCallback = HAL_PCDEx_LPM_Callback;
 151:Drivers/STM32F0xx_HAL_Driver/Src/stm32f0xx_hal_pcd.c ****     hpcd->BCDCallback = HAL_PCDEx_BCD_Callback;
 152:Drivers/STM32F0xx_HAL_Driver/Src/stm32f0xx_hal_pcd.c **** 
 153:Drivers/STM32F0xx_HAL_Driver/Src/stm32f0xx_hal_pcd.c ****     if (hpcd->MspInitCallback == NULL)
 154:Drivers/STM32F0xx_HAL_Driver/Src/stm32f0xx_hal_pcd.c ****     {
 155:Drivers/STM32F0xx_HAL_Driver/Src/stm32f0xx_hal_pcd.c ****       hpcd->MspInitCallback = HAL_PCD_MspInit;
 156:Drivers/STM32F0xx_HAL_Driver/Src/stm32f0xx_hal_pcd.c ****     }
 157:Drivers/STM32F0xx_HAL_Driver/Src/stm32f0xx_hal_pcd.c **** 
 158:Drivers/STM32F0xx_HAL_Driver/Src/stm32f0xx_hal_pcd.c ****     /* Init the low level hardware */
 159:Drivers/STM32F0xx_HAL_Driver/Src/stm32f0xx_hal_pcd.c ****     hpcd->MspInitCallback(hpcd);
ARM GAS  /tmp/ccTcoz65.s 			page 5


 160:Drivers/STM32F0xx_HAL_Driver/Src/stm32f0xx_hal_pcd.c **** #else
 161:Drivers/STM32F0xx_HAL_Driver/Src/stm32f0xx_hal_pcd.c ****     /* Init the low level hardware : GPIO, CLOCK, NVIC... */
 162:Drivers/STM32F0xx_HAL_Driver/Src/stm32f0xx_hal_pcd.c ****     HAL_PCD_MspInit(hpcd);
 163:Drivers/STM32F0xx_HAL_Driver/Src/stm32f0xx_hal_pcd.c **** #endif /* (USE_HAL_PCD_REGISTER_CALLBACKS) */
 164:Drivers/STM32F0xx_HAL_Driver/Src/stm32f0xx_hal_pcd.c ****   }
 165:Drivers/STM32F0xx_HAL_Driver/Src/stm32f0xx_hal_pcd.c **** 
 166:Drivers/STM32F0xx_HAL_Driver/Src/stm32f0xx_hal_pcd.c ****   hpcd->State = HAL_PCD_STATE_BUSY;
  73              		.loc 1 166 0
  74 0014 0322     		movs	r2, #3
  75 0016 2D4B     		ldr	r3, .L18
 167:Drivers/STM32F0xx_HAL_Driver/Src/stm32f0xx_hal_pcd.c **** 
 168:Drivers/STM32F0xx_HAL_Driver/Src/stm32f0xx_hal_pcd.c ****   /* Disable the Interrupts */
 169:Drivers/STM32F0xx_HAL_Driver/Src/stm32f0xx_hal_pcd.c ****   __HAL_PCD_DISABLE(hpcd);
  76              		.loc 1 169 0
  77 0018 2068     		ldr	r0, [r4]
 166:Drivers/STM32F0xx_HAL_Driver/Src/stm32f0xx_hal_pcd.c **** 
  78              		.loc 1 166 0
  79 001a E254     		strb	r2, [r4, r3]
  80              		.loc 1 169 0
  81 001c FFF7FEFF 		bl	USB_DisableGlobalInt
  82              	.LVL2:
 170:Drivers/STM32F0xx_HAL_Driver/Src/stm32f0xx_hal_pcd.c **** 
 171:Drivers/STM32F0xx_HAL_Driver/Src/stm32f0xx_hal_pcd.c ****   /* Init endpoints structures */
 172:Drivers/STM32F0xx_HAL_Driver/Src/stm32f0xx_hal_pcd.c ****   for (i = 0U; i < hpcd->Init.dev_endpoints; i++)
  83              		.loc 1 172 0
  84 0020 6068     		ldr	r0, [r4, #4]
  85 0022 0023     		movs	r3, #0
 173:Drivers/STM32F0xx_HAL_Driver/Src/stm32f0xx_hal_pcd.c ****   {
 174:Drivers/STM32F0xx_HAL_Driver/Src/stm32f0xx_hal_pcd.c ****     /* Init ep structure */
 175:Drivers/STM32F0xx_HAL_Driver/Src/stm32f0xx_hal_pcd.c ****     hpcd->IN_ep[i].is_in = 1U;
  86              		.loc 1 175 0
  87 0024 0126     		movs	r6, #1
 176:Drivers/STM32F0xx_HAL_Driver/Src/stm32f0xx_hal_pcd.c ****     hpcd->IN_ep[i].num = i;
 177:Drivers/STM32F0xx_HAL_Driver/Src/stm32f0xx_hal_pcd.c ****     hpcd->IN_ep[i].tx_fifo_num = i;
 178:Drivers/STM32F0xx_HAL_Driver/Src/stm32f0xx_hal_pcd.c ****     /* Control until ep is activated */
 179:Drivers/STM32F0xx_HAL_Driver/Src/stm32f0xx_hal_pcd.c ****     hpcd->IN_ep[i].type = EP_TYPE_CTRL;
  88              		.loc 1 179 0
  89 0026 0021     		movs	r1, #0
 172:Drivers/STM32F0xx_HAL_Driver/Src/stm32f0xx_hal_pcd.c ****   {
  90              		.loc 1 172 0
  91 0028 0028     		cmp	r0, #0
  92 002a 29D0     		beq	.L9
  93              	.LVL3:
  94              	.L11:
 175:Drivers/STM32F0xx_HAL_Driver/Src/stm32f0xx_hal_pcd.c ****     hpcd->IN_ep[i].num = i;
  95              		.loc 1 175 0 discriminator 3
  96 002c 5A01     		lsls	r2, r3, #5
  97 002e A218     		adds	r2, r4, r2
  98 0030 1500     		movs	r5, r2
  99 0032 2935     		adds	r5, r5, #41
 100 0034 2E70     		strb	r6, [r5]
 176:Drivers/STM32F0xx_HAL_Driver/Src/stm32f0xx_hal_pcd.c ****     hpcd->IN_ep[i].num = i;
 101              		.loc 1 176 0 discriminator 3
 102 0036 013D     		subs	r5, r5, #1
 103 0038 2B70     		strb	r3, [r5]
 177:Drivers/STM32F0xx_HAL_Driver/Src/stm32f0xx_hal_pcd.c ****     /* Control until ep is activated */
 104              		.loc 1 177 0 discriminator 3
ARM GAS  /tmp/ccTcoz65.s 			page 6


 105 003a D386     		strh	r3, [r2, #54]
 106              		.loc 1 179 0 discriminator 3
 107 003c E970     		strb	r1, [r5, #3]
 180:Drivers/STM32F0xx_HAL_Driver/Src/stm32f0xx_hal_pcd.c ****     hpcd->IN_ep[i].maxpacket = 0U;
 108              		.loc 1 180 0 discriminator 3
 109 003e 9163     		str	r1, [r2, #56]
 181:Drivers/STM32F0xx_HAL_Driver/Src/stm32f0xx_hal_pcd.c ****     hpcd->IN_ep[i].xfer_buff = 0U;
 110              		.loc 1 181 0 discriminator 3
 111 0040 D163     		str	r1, [r2, #60]
 182:Drivers/STM32F0xx_HAL_Driver/Src/stm32f0xx_hal_pcd.c ****     hpcd->IN_ep[i].xfer_len = 0U;
 112              		.loc 1 182 0 discriminator 3
 113 0042 9A1C     		adds	r2, r3, #2
 172:Drivers/STM32F0xx_HAL_Driver/Src/stm32f0xx_hal_pcd.c ****   {
 114              		.loc 1 172 0 discriminator 3
 115 0044 0133     		adds	r3, r3, #1
 116              	.LVL4:
 117              		.loc 1 182 0 discriminator 3
 118 0046 5201     		lsls	r2, r2, #5
 172:Drivers/STM32F0xx_HAL_Driver/Src/stm32f0xx_hal_pcd.c ****   {
 119              		.loc 1 172 0 discriminator 3
 120 0048 DBB2     		uxtb	r3, r3
 121              	.LVL5:
 122              		.loc 1 182 0 discriminator 3
 123 004a 1151     		str	r1, [r2, r4]
 172:Drivers/STM32F0xx_HAL_Driver/Src/stm32f0xx_hal_pcd.c ****   {
 124              		.loc 1 172 0 discriminator 3
 125 004c 8342     		cmp	r3, r0
 126 004e EDD3     		bcc	.L11
 127 0050 0022     		movs	r2, #0
 183:Drivers/STM32F0xx_HAL_Driver/Src/stm32f0xx_hal_pcd.c ****   }
 184:Drivers/STM32F0xx_HAL_Driver/Src/stm32f0xx_hal_pcd.c **** 
 185:Drivers/STM32F0xx_HAL_Driver/Src/stm32f0xx_hal_pcd.c ****   for (i = 0U; i < hpcd->Init.dev_endpoints; i++)
 186:Drivers/STM32F0xx_HAL_Driver/Src/stm32f0xx_hal_pcd.c ****   {
 187:Drivers/STM32F0xx_HAL_Driver/Src/stm32f0xx_hal_pcd.c ****     hpcd->OUT_ep[i].is_in = 0U;
 128              		.loc 1 187 0 discriminator 3
 129 0052 0021     		movs	r1, #0
 130              	.LVL6:
 131              	.L8:
 132 0054 5301     		lsls	r3, r2, #5
 133 0056 E318     		adds	r3, r4, r3
 134 0058 1D00     		movs	r5, r3
 135 005a 2A35     		adds	r5, r5, #42
 136 005c FF35     		adds	r5, r5, #255
 137 005e 2970     		strb	r1, [r5]
 188:Drivers/STM32F0xx_HAL_Driver/Src/stm32f0xx_hal_pcd.c ****     hpcd->OUT_ep[i].num = i;
 189:Drivers/STM32F0xx_HAL_Driver/Src/stm32f0xx_hal_pcd.c ****     /* Control until ep is activated */
 190:Drivers/STM32F0xx_HAL_Driver/Src/stm32f0xx_hal_pcd.c ****     hpcd->OUT_ep[i].type = EP_TYPE_CTRL;
 191:Drivers/STM32F0xx_HAL_Driver/Src/stm32f0xx_hal_pcd.c ****     hpcd->OUT_ep[i].maxpacket = 0U;
 192:Drivers/STM32F0xx_HAL_Driver/Src/stm32f0xx_hal_pcd.c ****     hpcd->OUT_ep[i].xfer_buff = 0U;
 138              		.loc 1 192 0 discriminator 3
 139 0060 3D33     		adds	r3, r3, #61
 188:Drivers/STM32F0xx_HAL_Driver/Src/stm32f0xx_hal_pcd.c ****     hpcd->OUT_ep[i].num = i;
 140              		.loc 1 188 0 discriminator 3
 141 0062 013D     		subs	r5, r5, #1
 142 0064 2A70     		strb	r2, [r5]
 190:Drivers/STM32F0xx_HAL_Driver/Src/stm32f0xx_hal_pcd.c ****     hpcd->OUT_ep[i].maxpacket = 0U;
 143              		.loc 1 190 0 discriminator 3
ARM GAS  /tmp/ccTcoz65.s 			page 7


 144 0066 E970     		strb	r1, [r5, #3]
 145              		.loc 1 192 0 discriminator 3
 146 0068 FF33     		adds	r3, r3, #255
 191:Drivers/STM32F0xx_HAL_Driver/Src/stm32f0xx_hal_pcd.c ****     hpcd->OUT_ep[i].xfer_buff = 0U;
 147              		.loc 1 191 0 discriminator 3
 148 006a 1035     		adds	r5, r5, #16
 149 006c 2960     		str	r1, [r5]
 150              		.loc 1 192 0 discriminator 3
 151 006e 1960     		str	r1, [r3]
 193:Drivers/STM32F0xx_HAL_Driver/Src/stm32f0xx_hal_pcd.c ****     hpcd->OUT_ep[i].xfer_len = 0U;
 152              		.loc 1 193 0 discriminator 3
 153 0070 1300     		movs	r3, r2
 185:Drivers/STM32F0xx_HAL_Driver/Src/stm32f0xx_hal_pcd.c ****   {
 154              		.loc 1 185 0 discriminator 3
 155 0072 0132     		adds	r2, r2, #1
 156              	.LVL7:
 157              		.loc 1 193 0 discriminator 3
 158 0074 0A33     		adds	r3, r3, #10
 159 0076 5B01     		lsls	r3, r3, #5
 185:Drivers/STM32F0xx_HAL_Driver/Src/stm32f0xx_hal_pcd.c ****   {
 160              		.loc 1 185 0 discriminator 3
 161 0078 D2B2     		uxtb	r2, r2
 162              	.LVL8:
 163              		.loc 1 193 0 discriminator 3
 164 007a 1951     		str	r1, [r3, r4]
 185:Drivers/STM32F0xx_HAL_Driver/Src/stm32f0xx_hal_pcd.c ****   {
 165              		.loc 1 185 0 discriminator 3
 166 007c 8242     		cmp	r2, r0
 167 007e E9D3     		bcc	.L8
 168              	.LVL9:
 169              	.L9:
 194:Drivers/STM32F0xx_HAL_Driver/Src/stm32f0xx_hal_pcd.c ****   }
 195:Drivers/STM32F0xx_HAL_Driver/Src/stm32f0xx_hal_pcd.c **** 
 196:Drivers/STM32F0xx_HAL_Driver/Src/stm32f0xx_hal_pcd.c ****   /* Init Device */
 197:Drivers/STM32F0xx_HAL_Driver/Src/stm32f0xx_hal_pcd.c ****   (void)USB_DevInit(hpcd->Instance, hpcd->Init);
 170              		.loc 1 197 0
 171 0080 2300     		movs	r3, r4
 172 0082 6A46     		mov	r2, sp
 173 0084 1033     		adds	r3, r3, #16
 174 0086 23CB     		ldmia	r3!, {r0, r1, r5}
 175 0088 23C2     		stmia	r2!, {r0, r1, r5}
 176 008a 03CB     		ldmia	r3!, {r0, r1}
 177 008c 03C2     		stmia	r2!, {r0, r1}
 178 008e A268     		ldr	r2, [r4, #8]
 179 0090 E368     		ldr	r3, [r4, #12]
 180 0092 6168     		ldr	r1, [r4, #4]
 181 0094 2068     		ldr	r0, [r4]
 182 0096 FFF7FEFF 		bl	USB_DevInit
 183              	.LVL10:
 198:Drivers/STM32F0xx_HAL_Driver/Src/stm32f0xx_hal_pcd.c **** 
 199:Drivers/STM32F0xx_HAL_Driver/Src/stm32f0xx_hal_pcd.c ****   hpcd->USB_Address = 0U;
 184              		.loc 1 199 0
 185 009a 0022     		movs	r2, #0
 186 009c 2423     		movs	r3, #36
 187 009e E254     		strb	r2, [r4, r3]
 200:Drivers/STM32F0xx_HAL_Driver/Src/stm32f0xx_hal_pcd.c ****   hpcd->State = HAL_PCD_STATE_READY;
 188              		.loc 1 200 0
ARM GAS  /tmp/ccTcoz65.s 			page 8


 189 00a0 0A4B     		ldr	r3, .L18
 190 00a2 0132     		adds	r2, r2, #1
 191 00a4 E254     		strb	r2, [r4, r3]
 201:Drivers/STM32F0xx_HAL_Driver/Src/stm32f0xx_hal_pcd.c ****   
 202:Drivers/STM32F0xx_HAL_Driver/Src/stm32f0xx_hal_pcd.c ****   /* Activate LPM */
 203:Drivers/STM32F0xx_HAL_Driver/Src/stm32f0xx_hal_pcd.c ****   if (hpcd->Init.lpm_enable == 1U)
 192              		.loc 1 203 0
 193 00a6 E369     		ldr	r3, [r4, #28]
 194 00a8 012B     		cmp	r3, #1
 195 00aa 08D0     		beq	.L17
 196              	.L14:
 204:Drivers/STM32F0xx_HAL_Driver/Src/stm32f0xx_hal_pcd.c ****   {
 205:Drivers/STM32F0xx_HAL_Driver/Src/stm32f0xx_hal_pcd.c ****     (void)HAL_PCDEx_ActivateLPM(hpcd);
 206:Drivers/STM32F0xx_HAL_Driver/Src/stm32f0xx_hal_pcd.c ****   }
 207:Drivers/STM32F0xx_HAL_Driver/Src/stm32f0xx_hal_pcd.c ****   
 208:Drivers/STM32F0xx_HAL_Driver/Src/stm32f0xx_hal_pcd.c ****   return HAL_OK;
 197              		.loc 1 208 0
 198 00ac 0020     		movs	r0, #0
 199              	.L3:
 209:Drivers/STM32F0xx_HAL_Driver/Src/stm32f0xx_hal_pcd.c **** }
 200              		.loc 1 209 0
 201 00ae 06B0     		add	sp, sp, #24
 202              		@ sp needed
 203              	.LVL11:
 204 00b0 70BD     		pop	{r4, r5, r6, pc}
 205              	.LVL12:
 206              	.L16:
 136:Drivers/STM32F0xx_HAL_Driver/Src/stm32f0xx_hal_pcd.c **** 
 207              		.loc 1 136 0
 208 00b2 8A22     		movs	r2, #138
 209 00b4 9200     		lsls	r2, r2, #2
 210 00b6 8354     		strb	r3, [r0, r2]
 162:Drivers/STM32F0xx_HAL_Driver/Src/stm32f0xx_hal_pcd.c **** #endif /* (USE_HAL_PCD_REGISTER_CALLBACKS) */
 211              		.loc 1 162 0
 212 00b8 FFF7FEFF 		bl	HAL_PCD_MspInit
 213              	.LVL13:
 214 00bc AAE7     		b	.L4
 215              	.L17:
 205:Drivers/STM32F0xx_HAL_Driver/Src/stm32f0xx_hal_pcd.c ****   }
 216              		.loc 1 205 0
 217 00be 2000     		movs	r0, r4
 218 00c0 FFF7FEFF 		bl	HAL_PCDEx_ActivateLPM
 219              	.LVL14:
 220 00c4 F2E7     		b	.L14
 221              	.LVL15:
 222              	.L10:
 127:Drivers/STM32F0xx_HAL_Driver/Src/stm32f0xx_hal_pcd.c ****   }
 223              		.loc 1 127 0
 224 00c6 0120     		movs	r0, #1
 225              	.LVL16:
 226 00c8 F1E7     		b	.L3
 227              	.L19:
 228 00ca C046     		.align	2
 229              	.L18:
 230 00cc 29020000 		.word	553
 231              		.cfi_endproc
 232              	.LFE40:
ARM GAS  /tmp/ccTcoz65.s 			page 9


 234              		.section	.text.HAL_PCD_MspDeInit,"ax",%progbits
 235              		.align	2
 236              		.weak	HAL_PCD_MspDeInit
 237              		.code	16
 238              		.thumb_func
 240              	HAL_PCD_MspDeInit:
 241              	.LFB88:
 242              		.cfi_startproc
 243              		@ args = 0, pretend = 0, frame = 0
 244              		@ frame_needed = 0, uses_anonymous_args = 0
 245              		@ link register save eliminated.
 246              		@ sp needed
 247 0000 7047     		bx	lr
 248              		.cfi_endproc
 249              	.LFE88:
 251 0002 C046     		.section	.text.HAL_PCD_DeInit,"ax",%progbits
 252              		.align	2
 253              		.global	HAL_PCD_DeInit
 254              		.code	16
 255              		.thumb_func
 257              	HAL_PCD_DeInit:
 258              	.LFB41:
 210:Drivers/STM32F0xx_HAL_Driver/Src/stm32f0xx_hal_pcd.c **** 
 211:Drivers/STM32F0xx_HAL_Driver/Src/stm32f0xx_hal_pcd.c **** /**
 212:Drivers/STM32F0xx_HAL_Driver/Src/stm32f0xx_hal_pcd.c ****   * @brief  DeInitializes the PCD peripheral.
 213:Drivers/STM32F0xx_HAL_Driver/Src/stm32f0xx_hal_pcd.c ****   * @param  hpcd PCD handle
 214:Drivers/STM32F0xx_HAL_Driver/Src/stm32f0xx_hal_pcd.c ****   * @retval HAL status
 215:Drivers/STM32F0xx_HAL_Driver/Src/stm32f0xx_hal_pcd.c ****   */
 216:Drivers/STM32F0xx_HAL_Driver/Src/stm32f0xx_hal_pcd.c **** HAL_StatusTypeDef HAL_PCD_DeInit(PCD_HandleTypeDef *hpcd)
 217:Drivers/STM32F0xx_HAL_Driver/Src/stm32f0xx_hal_pcd.c **** {
 259              		.loc 1 217 0
 260              		.cfi_startproc
 261              		@ args = 0, pretend = 0, frame = 0
 262              		@ frame_needed = 0, uses_anonymous_args = 0
 263              	.LVL17:
 264              		.loc 1 217 0
 265 0000 70B5     		push	{r4, r5, r6, lr}
 266              	.LCFI2:
 267              		.cfi_def_cfa_offset 16
 268              		.cfi_offset 4, -16
 269              		.cfi_offset 5, -12
 270              		.cfi_offset 6, -8
 271              		.cfi_offset 14, -4
 272              		.loc 1 217 0
 273 0002 041E     		subs	r4, r0, #0
 218:Drivers/STM32F0xx_HAL_Driver/Src/stm32f0xx_hal_pcd.c ****   /* Check the PCD handle allocation */
 219:Drivers/STM32F0xx_HAL_Driver/Src/stm32f0xx_hal_pcd.c ****   if (hpcd == NULL)
 274              		.loc 1 219 0
 275 0004 19D0     		beq	.L24
 220:Drivers/STM32F0xx_HAL_Driver/Src/stm32f0xx_hal_pcd.c ****   {
 221:Drivers/STM32F0xx_HAL_Driver/Src/stm32f0xx_hal_pcd.c ****     return HAL_ERROR;
 222:Drivers/STM32F0xx_HAL_Driver/Src/stm32f0xx_hal_pcd.c ****   }
 223:Drivers/STM32F0xx_HAL_Driver/Src/stm32f0xx_hal_pcd.c **** 
 224:Drivers/STM32F0xx_HAL_Driver/Src/stm32f0xx_hal_pcd.c ****   hpcd->State = HAL_PCD_STATE_BUSY;
 276              		.loc 1 224 0
 277 0006 0322     		movs	r2, #3
 278              	.LBB10:
ARM GAS  /tmp/ccTcoz65.s 			page 10


 279              	.LBB11:
 225:Drivers/STM32F0xx_HAL_Driver/Src/stm32f0xx_hal_pcd.c **** 
 226:Drivers/STM32F0xx_HAL_Driver/Src/stm32f0xx_hal_pcd.c ****   /* Stop Device */
 227:Drivers/STM32F0xx_HAL_Driver/Src/stm32f0xx_hal_pcd.c ****   (void)HAL_PCD_Stop(hpcd);
 228:Drivers/STM32F0xx_HAL_Driver/Src/stm32f0xx_hal_pcd.c **** 
 229:Drivers/STM32F0xx_HAL_Driver/Src/stm32f0xx_hal_pcd.c **** #if (USE_HAL_PCD_REGISTER_CALLBACKS == 1U)
 230:Drivers/STM32F0xx_HAL_Driver/Src/stm32f0xx_hal_pcd.c ****   if (hpcd->MspDeInitCallback == NULL)
 231:Drivers/STM32F0xx_HAL_Driver/Src/stm32f0xx_hal_pcd.c ****   {
 232:Drivers/STM32F0xx_HAL_Driver/Src/stm32f0xx_hal_pcd.c ****     hpcd->MspDeInitCallback = HAL_PCD_MspDeInit; /* Legacy weak MspDeInit  */
 233:Drivers/STM32F0xx_HAL_Driver/Src/stm32f0xx_hal_pcd.c ****   }
 234:Drivers/STM32F0xx_HAL_Driver/Src/stm32f0xx_hal_pcd.c **** 
 235:Drivers/STM32F0xx_HAL_Driver/Src/stm32f0xx_hal_pcd.c ****   /* DeInit the low level hardware */
 236:Drivers/STM32F0xx_HAL_Driver/Src/stm32f0xx_hal_pcd.c ****   hpcd->MspDeInitCallback(hpcd);
 237:Drivers/STM32F0xx_HAL_Driver/Src/stm32f0xx_hal_pcd.c **** #else
 238:Drivers/STM32F0xx_HAL_Driver/Src/stm32f0xx_hal_pcd.c ****   /* DeInit the low level hardware: CLOCK, NVIC.*/
 239:Drivers/STM32F0xx_HAL_Driver/Src/stm32f0xx_hal_pcd.c ****   HAL_PCD_MspDeInit(hpcd);
 240:Drivers/STM32F0xx_HAL_Driver/Src/stm32f0xx_hal_pcd.c **** #endif /* USE_HAL_PCD_REGISTER_CALLBACKS */
 241:Drivers/STM32F0xx_HAL_Driver/Src/stm32f0xx_hal_pcd.c **** 
 242:Drivers/STM32F0xx_HAL_Driver/Src/stm32f0xx_hal_pcd.c ****   hpcd->State = HAL_PCD_STATE_RESET;
 243:Drivers/STM32F0xx_HAL_Driver/Src/stm32f0xx_hal_pcd.c **** 
 244:Drivers/STM32F0xx_HAL_Driver/Src/stm32f0xx_hal_pcd.c ****   return HAL_OK;
 245:Drivers/STM32F0xx_HAL_Driver/Src/stm32f0xx_hal_pcd.c **** }
 246:Drivers/STM32F0xx_HAL_Driver/Src/stm32f0xx_hal_pcd.c **** 
 247:Drivers/STM32F0xx_HAL_Driver/Src/stm32f0xx_hal_pcd.c **** /**
 248:Drivers/STM32F0xx_HAL_Driver/Src/stm32f0xx_hal_pcd.c ****   * @brief  Initializes the PCD MSP.
 249:Drivers/STM32F0xx_HAL_Driver/Src/stm32f0xx_hal_pcd.c ****   * @param  hpcd PCD handle
 250:Drivers/STM32F0xx_HAL_Driver/Src/stm32f0xx_hal_pcd.c ****   * @retval None
 251:Drivers/STM32F0xx_HAL_Driver/Src/stm32f0xx_hal_pcd.c ****   */
 252:Drivers/STM32F0xx_HAL_Driver/Src/stm32f0xx_hal_pcd.c **** __weak void HAL_PCD_MspInit(PCD_HandleTypeDef *hpcd)
 253:Drivers/STM32F0xx_HAL_Driver/Src/stm32f0xx_hal_pcd.c **** {
 254:Drivers/STM32F0xx_HAL_Driver/Src/stm32f0xx_hal_pcd.c ****   /* Prevent unused argument(s) compilation warning */
 255:Drivers/STM32F0xx_HAL_Driver/Src/stm32f0xx_hal_pcd.c ****   UNUSED(hpcd);
 256:Drivers/STM32F0xx_HAL_Driver/Src/stm32f0xx_hal_pcd.c **** 
 257:Drivers/STM32F0xx_HAL_Driver/Src/stm32f0xx_hal_pcd.c ****   /* NOTE : This function should not be modified, when the callback is needed,
 258:Drivers/STM32F0xx_HAL_Driver/Src/stm32f0xx_hal_pcd.c ****             the HAL_PCD_MspInit could be implemented in the user file
 259:Drivers/STM32F0xx_HAL_Driver/Src/stm32f0xx_hal_pcd.c ****    */
 260:Drivers/STM32F0xx_HAL_Driver/Src/stm32f0xx_hal_pcd.c **** }
 261:Drivers/STM32F0xx_HAL_Driver/Src/stm32f0xx_hal_pcd.c **** 
 262:Drivers/STM32F0xx_HAL_Driver/Src/stm32f0xx_hal_pcd.c **** /**
 263:Drivers/STM32F0xx_HAL_Driver/Src/stm32f0xx_hal_pcd.c ****   * @brief  DeInitializes PCD MSP.
 264:Drivers/STM32F0xx_HAL_Driver/Src/stm32f0xx_hal_pcd.c ****   * @param  hpcd PCD handle
 265:Drivers/STM32F0xx_HAL_Driver/Src/stm32f0xx_hal_pcd.c ****   * @retval None
 266:Drivers/STM32F0xx_HAL_Driver/Src/stm32f0xx_hal_pcd.c ****   */
 267:Drivers/STM32F0xx_HAL_Driver/Src/stm32f0xx_hal_pcd.c **** __weak void HAL_PCD_MspDeInit(PCD_HandleTypeDef *hpcd)
 268:Drivers/STM32F0xx_HAL_Driver/Src/stm32f0xx_hal_pcd.c **** {
 269:Drivers/STM32F0xx_HAL_Driver/Src/stm32f0xx_hal_pcd.c ****   /* Prevent unused argument(s) compilation warning */
 270:Drivers/STM32F0xx_HAL_Driver/Src/stm32f0xx_hal_pcd.c ****   UNUSED(hpcd);
 271:Drivers/STM32F0xx_HAL_Driver/Src/stm32f0xx_hal_pcd.c **** 
 272:Drivers/STM32F0xx_HAL_Driver/Src/stm32f0xx_hal_pcd.c ****   /* NOTE : This function should not be modified, when the callback is needed,
 273:Drivers/STM32F0xx_HAL_Driver/Src/stm32f0xx_hal_pcd.c ****             the HAL_PCD_MspDeInit could be implemented in the user file
 274:Drivers/STM32F0xx_HAL_Driver/Src/stm32f0xx_hal_pcd.c ****    */
 275:Drivers/STM32F0xx_HAL_Driver/Src/stm32f0xx_hal_pcd.c **** }
 276:Drivers/STM32F0xx_HAL_Driver/Src/stm32f0xx_hal_pcd.c **** 
 277:Drivers/STM32F0xx_HAL_Driver/Src/stm32f0xx_hal_pcd.c **** #if (USE_HAL_PCD_REGISTER_CALLBACKS == 1U)
 278:Drivers/STM32F0xx_HAL_Driver/Src/stm32f0xx_hal_pcd.c **** /**
 279:Drivers/STM32F0xx_HAL_Driver/Src/stm32f0xx_hal_pcd.c ****   * @brief  Register a User USB PCD Callback
 280:Drivers/STM32F0xx_HAL_Driver/Src/stm32f0xx_hal_pcd.c ****   *         To be used instead of the weak predefined callback
ARM GAS  /tmp/ccTcoz65.s 			page 11


 281:Drivers/STM32F0xx_HAL_Driver/Src/stm32f0xx_hal_pcd.c ****   * @param  hpcd USB PCD handle
 282:Drivers/STM32F0xx_HAL_Driver/Src/stm32f0xx_hal_pcd.c ****   * @param  CallbackID ID of the callback to be registered
 283:Drivers/STM32F0xx_HAL_Driver/Src/stm32f0xx_hal_pcd.c ****   *         This parameter can be one of the following values:
 284:Drivers/STM32F0xx_HAL_Driver/Src/stm32f0xx_hal_pcd.c ****   *          @arg @ref HAL_PCD_SOF_CB_ID USB PCD SOF callback ID
 285:Drivers/STM32F0xx_HAL_Driver/Src/stm32f0xx_hal_pcd.c ****   *          @arg @ref HAL_PCD_SETUPSTAGE_CB_ID USB PCD Setup callback ID
 286:Drivers/STM32F0xx_HAL_Driver/Src/stm32f0xx_hal_pcd.c ****   *          @arg @ref HAL_PCD_RESET_CB_ID USB PCD Reset callback ID
 287:Drivers/STM32F0xx_HAL_Driver/Src/stm32f0xx_hal_pcd.c ****   *          @arg @ref HAL_PCD_SUSPEND_CB_ID USB PCD Suspend callback ID
 288:Drivers/STM32F0xx_HAL_Driver/Src/stm32f0xx_hal_pcd.c ****   *          @arg @ref HAL_PCD_RESUME_CB_ID USB PCD Resume callback ID
 289:Drivers/STM32F0xx_HAL_Driver/Src/stm32f0xx_hal_pcd.c ****   *          @arg @ref HAL_PCD_CONNECT_CB_ID USB PCD Connect callback ID
 290:Drivers/STM32F0xx_HAL_Driver/Src/stm32f0xx_hal_pcd.c ****   *          @arg @ref HAL_PCD_DISCONNECT_CB_ID OTG PCD Disconnect callback ID
 291:Drivers/STM32F0xx_HAL_Driver/Src/stm32f0xx_hal_pcd.c ****   *          @arg @ref HAL_PCD_MSPINIT_CB_ID MspDeInit callback ID
 292:Drivers/STM32F0xx_HAL_Driver/Src/stm32f0xx_hal_pcd.c ****   *          @arg @ref HAL_PCD_MSPDEINIT_CB_ID MspDeInit callback ID
 293:Drivers/STM32F0xx_HAL_Driver/Src/stm32f0xx_hal_pcd.c ****   * @param  pCallback pointer to the Callback function
 294:Drivers/STM32F0xx_HAL_Driver/Src/stm32f0xx_hal_pcd.c ****   * @retval HAL status
 295:Drivers/STM32F0xx_HAL_Driver/Src/stm32f0xx_hal_pcd.c ****   */
 296:Drivers/STM32F0xx_HAL_Driver/Src/stm32f0xx_hal_pcd.c **** HAL_StatusTypeDef HAL_PCD_RegisterCallback(PCD_HandleTypeDef *hpcd, HAL_PCD_CallbackIDTypeDef Callb
 297:Drivers/STM32F0xx_HAL_Driver/Src/stm32f0xx_hal_pcd.c **** {
 298:Drivers/STM32F0xx_HAL_Driver/Src/stm32f0xx_hal_pcd.c ****   HAL_StatusTypeDef status = HAL_OK;
 299:Drivers/STM32F0xx_HAL_Driver/Src/stm32f0xx_hal_pcd.c **** 
 300:Drivers/STM32F0xx_HAL_Driver/Src/stm32f0xx_hal_pcd.c ****   if (pCallback == NULL)
 301:Drivers/STM32F0xx_HAL_Driver/Src/stm32f0xx_hal_pcd.c ****   {
 302:Drivers/STM32F0xx_HAL_Driver/Src/stm32f0xx_hal_pcd.c ****     /* Update the error code */
 303:Drivers/STM32F0xx_HAL_Driver/Src/stm32f0xx_hal_pcd.c ****     hpcd->ErrorCode |= HAL_PCD_ERROR_INVALID_CALLBACK;
 304:Drivers/STM32F0xx_HAL_Driver/Src/stm32f0xx_hal_pcd.c ****     return HAL_ERROR;
 305:Drivers/STM32F0xx_HAL_Driver/Src/stm32f0xx_hal_pcd.c ****   }
 306:Drivers/STM32F0xx_HAL_Driver/Src/stm32f0xx_hal_pcd.c ****   /* Process locked */
 307:Drivers/STM32F0xx_HAL_Driver/Src/stm32f0xx_hal_pcd.c ****   __HAL_LOCK(hpcd);
 308:Drivers/STM32F0xx_HAL_Driver/Src/stm32f0xx_hal_pcd.c **** 
 309:Drivers/STM32F0xx_HAL_Driver/Src/stm32f0xx_hal_pcd.c ****   if (hpcd->State == HAL_PCD_STATE_READY)
 310:Drivers/STM32F0xx_HAL_Driver/Src/stm32f0xx_hal_pcd.c ****   {
 311:Drivers/STM32F0xx_HAL_Driver/Src/stm32f0xx_hal_pcd.c ****     switch (CallbackID)
 312:Drivers/STM32F0xx_HAL_Driver/Src/stm32f0xx_hal_pcd.c ****     {
 313:Drivers/STM32F0xx_HAL_Driver/Src/stm32f0xx_hal_pcd.c ****       case HAL_PCD_SOF_CB_ID :
 314:Drivers/STM32F0xx_HAL_Driver/Src/stm32f0xx_hal_pcd.c ****         hpcd->SOFCallback = pCallback;
 315:Drivers/STM32F0xx_HAL_Driver/Src/stm32f0xx_hal_pcd.c ****         break;
 316:Drivers/STM32F0xx_HAL_Driver/Src/stm32f0xx_hal_pcd.c **** 
 317:Drivers/STM32F0xx_HAL_Driver/Src/stm32f0xx_hal_pcd.c ****       case HAL_PCD_SETUPSTAGE_CB_ID :
 318:Drivers/STM32F0xx_HAL_Driver/Src/stm32f0xx_hal_pcd.c ****         hpcd->SetupStageCallback = pCallback;
 319:Drivers/STM32F0xx_HAL_Driver/Src/stm32f0xx_hal_pcd.c ****         break;
 320:Drivers/STM32F0xx_HAL_Driver/Src/stm32f0xx_hal_pcd.c **** 
 321:Drivers/STM32F0xx_HAL_Driver/Src/stm32f0xx_hal_pcd.c ****       case HAL_PCD_RESET_CB_ID :
 322:Drivers/STM32F0xx_HAL_Driver/Src/stm32f0xx_hal_pcd.c ****         hpcd->ResetCallback = pCallback;
 323:Drivers/STM32F0xx_HAL_Driver/Src/stm32f0xx_hal_pcd.c ****         break;
 324:Drivers/STM32F0xx_HAL_Driver/Src/stm32f0xx_hal_pcd.c **** 
 325:Drivers/STM32F0xx_HAL_Driver/Src/stm32f0xx_hal_pcd.c ****       case HAL_PCD_SUSPEND_CB_ID :
 326:Drivers/STM32F0xx_HAL_Driver/Src/stm32f0xx_hal_pcd.c ****         hpcd->SuspendCallback = pCallback;
 327:Drivers/STM32F0xx_HAL_Driver/Src/stm32f0xx_hal_pcd.c ****         break;
 328:Drivers/STM32F0xx_HAL_Driver/Src/stm32f0xx_hal_pcd.c **** 
 329:Drivers/STM32F0xx_HAL_Driver/Src/stm32f0xx_hal_pcd.c ****       case HAL_PCD_RESUME_CB_ID :
 330:Drivers/STM32F0xx_HAL_Driver/Src/stm32f0xx_hal_pcd.c ****         hpcd->ResumeCallback = pCallback;
 331:Drivers/STM32F0xx_HAL_Driver/Src/stm32f0xx_hal_pcd.c ****         break;
 332:Drivers/STM32F0xx_HAL_Driver/Src/stm32f0xx_hal_pcd.c **** 
 333:Drivers/STM32F0xx_HAL_Driver/Src/stm32f0xx_hal_pcd.c ****       case HAL_PCD_CONNECT_CB_ID :
 334:Drivers/STM32F0xx_HAL_Driver/Src/stm32f0xx_hal_pcd.c ****         hpcd->ConnectCallback = pCallback;
 335:Drivers/STM32F0xx_HAL_Driver/Src/stm32f0xx_hal_pcd.c ****         break;
 336:Drivers/STM32F0xx_HAL_Driver/Src/stm32f0xx_hal_pcd.c **** 
 337:Drivers/STM32F0xx_HAL_Driver/Src/stm32f0xx_hal_pcd.c ****       case HAL_PCD_DISCONNECT_CB_ID :
ARM GAS  /tmp/ccTcoz65.s 			page 12


 338:Drivers/STM32F0xx_HAL_Driver/Src/stm32f0xx_hal_pcd.c ****         hpcd->DisconnectCallback = pCallback;
 339:Drivers/STM32F0xx_HAL_Driver/Src/stm32f0xx_hal_pcd.c ****         break;
 340:Drivers/STM32F0xx_HAL_Driver/Src/stm32f0xx_hal_pcd.c **** 
 341:Drivers/STM32F0xx_HAL_Driver/Src/stm32f0xx_hal_pcd.c ****       case HAL_PCD_MSPINIT_CB_ID :
 342:Drivers/STM32F0xx_HAL_Driver/Src/stm32f0xx_hal_pcd.c ****         hpcd->MspInitCallback = pCallback;
 343:Drivers/STM32F0xx_HAL_Driver/Src/stm32f0xx_hal_pcd.c ****         break;
 344:Drivers/STM32F0xx_HAL_Driver/Src/stm32f0xx_hal_pcd.c **** 
 345:Drivers/STM32F0xx_HAL_Driver/Src/stm32f0xx_hal_pcd.c ****       case HAL_PCD_MSPDEINIT_CB_ID :
 346:Drivers/STM32F0xx_HAL_Driver/Src/stm32f0xx_hal_pcd.c ****         hpcd->MspDeInitCallback = pCallback;
 347:Drivers/STM32F0xx_HAL_Driver/Src/stm32f0xx_hal_pcd.c ****         break;
 348:Drivers/STM32F0xx_HAL_Driver/Src/stm32f0xx_hal_pcd.c **** 
 349:Drivers/STM32F0xx_HAL_Driver/Src/stm32f0xx_hal_pcd.c ****       default :
 350:Drivers/STM32F0xx_HAL_Driver/Src/stm32f0xx_hal_pcd.c ****         /* Update the error code */
 351:Drivers/STM32F0xx_HAL_Driver/Src/stm32f0xx_hal_pcd.c ****         hpcd->ErrorCode |= HAL_PCD_ERROR_INVALID_CALLBACK;
 352:Drivers/STM32F0xx_HAL_Driver/Src/stm32f0xx_hal_pcd.c ****         /* Return error status */
 353:Drivers/STM32F0xx_HAL_Driver/Src/stm32f0xx_hal_pcd.c ****         status =  HAL_ERROR;
 354:Drivers/STM32F0xx_HAL_Driver/Src/stm32f0xx_hal_pcd.c ****         break;
 355:Drivers/STM32F0xx_HAL_Driver/Src/stm32f0xx_hal_pcd.c ****     }
 356:Drivers/STM32F0xx_HAL_Driver/Src/stm32f0xx_hal_pcd.c ****   }
 357:Drivers/STM32F0xx_HAL_Driver/Src/stm32f0xx_hal_pcd.c ****   else if (hpcd->State == HAL_PCD_STATE_RESET)
 358:Drivers/STM32F0xx_HAL_Driver/Src/stm32f0xx_hal_pcd.c ****   {
 359:Drivers/STM32F0xx_HAL_Driver/Src/stm32f0xx_hal_pcd.c ****     switch (CallbackID)
 360:Drivers/STM32F0xx_HAL_Driver/Src/stm32f0xx_hal_pcd.c ****     {
 361:Drivers/STM32F0xx_HAL_Driver/Src/stm32f0xx_hal_pcd.c ****       case HAL_PCD_MSPINIT_CB_ID :
 362:Drivers/STM32F0xx_HAL_Driver/Src/stm32f0xx_hal_pcd.c ****         hpcd->MspInitCallback = pCallback;
 363:Drivers/STM32F0xx_HAL_Driver/Src/stm32f0xx_hal_pcd.c ****         break;
 364:Drivers/STM32F0xx_HAL_Driver/Src/stm32f0xx_hal_pcd.c **** 
 365:Drivers/STM32F0xx_HAL_Driver/Src/stm32f0xx_hal_pcd.c ****       case HAL_PCD_MSPDEINIT_CB_ID :
 366:Drivers/STM32F0xx_HAL_Driver/Src/stm32f0xx_hal_pcd.c ****         hpcd->MspDeInitCallback = pCallback;
 367:Drivers/STM32F0xx_HAL_Driver/Src/stm32f0xx_hal_pcd.c ****         break;
 368:Drivers/STM32F0xx_HAL_Driver/Src/stm32f0xx_hal_pcd.c **** 
 369:Drivers/STM32F0xx_HAL_Driver/Src/stm32f0xx_hal_pcd.c ****       default :
 370:Drivers/STM32F0xx_HAL_Driver/Src/stm32f0xx_hal_pcd.c ****         /* Update the error code */
 371:Drivers/STM32F0xx_HAL_Driver/Src/stm32f0xx_hal_pcd.c ****         hpcd->ErrorCode |= HAL_PCD_ERROR_INVALID_CALLBACK;
 372:Drivers/STM32F0xx_HAL_Driver/Src/stm32f0xx_hal_pcd.c ****         /* Return error status */
 373:Drivers/STM32F0xx_HAL_Driver/Src/stm32f0xx_hal_pcd.c ****         status =  HAL_ERROR;
 374:Drivers/STM32F0xx_HAL_Driver/Src/stm32f0xx_hal_pcd.c ****         break;
 375:Drivers/STM32F0xx_HAL_Driver/Src/stm32f0xx_hal_pcd.c ****     }
 376:Drivers/STM32F0xx_HAL_Driver/Src/stm32f0xx_hal_pcd.c ****   }
 377:Drivers/STM32F0xx_HAL_Driver/Src/stm32f0xx_hal_pcd.c ****   else
 378:Drivers/STM32F0xx_HAL_Driver/Src/stm32f0xx_hal_pcd.c ****   {
 379:Drivers/STM32F0xx_HAL_Driver/Src/stm32f0xx_hal_pcd.c ****     /* Update the error code */
 380:Drivers/STM32F0xx_HAL_Driver/Src/stm32f0xx_hal_pcd.c ****     hpcd->ErrorCode |= HAL_PCD_ERROR_INVALID_CALLBACK;
 381:Drivers/STM32F0xx_HAL_Driver/Src/stm32f0xx_hal_pcd.c ****     /* Return error status */
 382:Drivers/STM32F0xx_HAL_Driver/Src/stm32f0xx_hal_pcd.c ****     status =  HAL_ERROR;
 383:Drivers/STM32F0xx_HAL_Driver/Src/stm32f0xx_hal_pcd.c ****   }
 384:Drivers/STM32F0xx_HAL_Driver/Src/stm32f0xx_hal_pcd.c **** 
 385:Drivers/STM32F0xx_HAL_Driver/Src/stm32f0xx_hal_pcd.c ****   /* Release Lock */
 386:Drivers/STM32F0xx_HAL_Driver/Src/stm32f0xx_hal_pcd.c ****   __HAL_UNLOCK(hpcd);
 387:Drivers/STM32F0xx_HAL_Driver/Src/stm32f0xx_hal_pcd.c ****   return status;
 388:Drivers/STM32F0xx_HAL_Driver/Src/stm32f0xx_hal_pcd.c **** }
 389:Drivers/STM32F0xx_HAL_Driver/Src/stm32f0xx_hal_pcd.c **** 
 390:Drivers/STM32F0xx_HAL_Driver/Src/stm32f0xx_hal_pcd.c **** /**
 391:Drivers/STM32F0xx_HAL_Driver/Src/stm32f0xx_hal_pcd.c ****   * @brief  Unregister an USB PCD Callback
 392:Drivers/STM32F0xx_HAL_Driver/Src/stm32f0xx_hal_pcd.c ****   *         USB PCD callabck is redirected to the weak predefined callback
 393:Drivers/STM32F0xx_HAL_Driver/Src/stm32f0xx_hal_pcd.c ****   * @param  hpcd USB PCD handle
 394:Drivers/STM32F0xx_HAL_Driver/Src/stm32f0xx_hal_pcd.c ****   * @param  CallbackID ID of the callback to be unregistered
ARM GAS  /tmp/ccTcoz65.s 			page 13


 395:Drivers/STM32F0xx_HAL_Driver/Src/stm32f0xx_hal_pcd.c ****   *         This parameter can be one of the following values:
 396:Drivers/STM32F0xx_HAL_Driver/Src/stm32f0xx_hal_pcd.c ****   *          @arg @ref HAL_PCD_SOF_CB_ID USB PCD SOF callback ID
 397:Drivers/STM32F0xx_HAL_Driver/Src/stm32f0xx_hal_pcd.c ****   *          @arg @ref HAL_PCD_SETUPSTAGE_CB_ID USB PCD Setup callback ID
 398:Drivers/STM32F0xx_HAL_Driver/Src/stm32f0xx_hal_pcd.c ****   *          @arg @ref HAL_PCD_RESET_CB_ID USB PCD Reset callback ID
 399:Drivers/STM32F0xx_HAL_Driver/Src/stm32f0xx_hal_pcd.c ****   *          @arg @ref HAL_PCD_SUSPEND_CB_ID USB PCD Suspend callback ID
 400:Drivers/STM32F0xx_HAL_Driver/Src/stm32f0xx_hal_pcd.c ****   *          @arg @ref HAL_PCD_RESUME_CB_ID USB PCD Resume callback ID
 401:Drivers/STM32F0xx_HAL_Driver/Src/stm32f0xx_hal_pcd.c ****   *          @arg @ref HAL_PCD_CONNECT_CB_ID USB PCD Connect callback ID
 402:Drivers/STM32F0xx_HAL_Driver/Src/stm32f0xx_hal_pcd.c ****   *          @arg @ref HAL_PCD_DISCONNECT_CB_ID OTG PCD Disconnect callback ID
 403:Drivers/STM32F0xx_HAL_Driver/Src/stm32f0xx_hal_pcd.c ****   *          @arg @ref HAL_PCD_MSPINIT_CB_ID MspDeInit callback ID
 404:Drivers/STM32F0xx_HAL_Driver/Src/stm32f0xx_hal_pcd.c ****   *          @arg @ref HAL_PCD_MSPDEINIT_CB_ID MspDeInit callback ID
 405:Drivers/STM32F0xx_HAL_Driver/Src/stm32f0xx_hal_pcd.c ****   * @retval HAL status
 406:Drivers/STM32F0xx_HAL_Driver/Src/stm32f0xx_hal_pcd.c ****   */
 407:Drivers/STM32F0xx_HAL_Driver/Src/stm32f0xx_hal_pcd.c **** HAL_StatusTypeDef HAL_PCD_UnRegisterCallback(PCD_HandleTypeDef *hpcd, HAL_PCD_CallbackIDTypeDef Cal
 408:Drivers/STM32F0xx_HAL_Driver/Src/stm32f0xx_hal_pcd.c **** {
 409:Drivers/STM32F0xx_HAL_Driver/Src/stm32f0xx_hal_pcd.c ****   HAL_StatusTypeDef status = HAL_OK;
 410:Drivers/STM32F0xx_HAL_Driver/Src/stm32f0xx_hal_pcd.c **** 
 411:Drivers/STM32F0xx_HAL_Driver/Src/stm32f0xx_hal_pcd.c ****   /* Process locked */
 412:Drivers/STM32F0xx_HAL_Driver/Src/stm32f0xx_hal_pcd.c ****   __HAL_LOCK(hpcd);
 413:Drivers/STM32F0xx_HAL_Driver/Src/stm32f0xx_hal_pcd.c **** 
 414:Drivers/STM32F0xx_HAL_Driver/Src/stm32f0xx_hal_pcd.c ****   /* Setup Legacy weak Callbacks  */
 415:Drivers/STM32F0xx_HAL_Driver/Src/stm32f0xx_hal_pcd.c ****   if (hpcd->State == HAL_PCD_STATE_READY)
 416:Drivers/STM32F0xx_HAL_Driver/Src/stm32f0xx_hal_pcd.c ****   {
 417:Drivers/STM32F0xx_HAL_Driver/Src/stm32f0xx_hal_pcd.c ****     switch (CallbackID)
 418:Drivers/STM32F0xx_HAL_Driver/Src/stm32f0xx_hal_pcd.c ****     {
 419:Drivers/STM32F0xx_HAL_Driver/Src/stm32f0xx_hal_pcd.c ****       case HAL_PCD_SOF_CB_ID :
 420:Drivers/STM32F0xx_HAL_Driver/Src/stm32f0xx_hal_pcd.c ****         hpcd->SOFCallback = HAL_PCD_SOFCallback;
 421:Drivers/STM32F0xx_HAL_Driver/Src/stm32f0xx_hal_pcd.c ****         break;
 422:Drivers/STM32F0xx_HAL_Driver/Src/stm32f0xx_hal_pcd.c **** 
 423:Drivers/STM32F0xx_HAL_Driver/Src/stm32f0xx_hal_pcd.c ****       case HAL_PCD_SETUPSTAGE_CB_ID :
 424:Drivers/STM32F0xx_HAL_Driver/Src/stm32f0xx_hal_pcd.c ****         hpcd->SetupStageCallback = HAL_PCD_SetupStageCallback;
 425:Drivers/STM32F0xx_HAL_Driver/Src/stm32f0xx_hal_pcd.c ****         break;
 426:Drivers/STM32F0xx_HAL_Driver/Src/stm32f0xx_hal_pcd.c **** 
 427:Drivers/STM32F0xx_HAL_Driver/Src/stm32f0xx_hal_pcd.c ****       case HAL_PCD_RESET_CB_ID :
 428:Drivers/STM32F0xx_HAL_Driver/Src/stm32f0xx_hal_pcd.c ****         hpcd->ResetCallback = HAL_PCD_ResetCallback;
 429:Drivers/STM32F0xx_HAL_Driver/Src/stm32f0xx_hal_pcd.c ****         break;
 430:Drivers/STM32F0xx_HAL_Driver/Src/stm32f0xx_hal_pcd.c **** 
 431:Drivers/STM32F0xx_HAL_Driver/Src/stm32f0xx_hal_pcd.c ****       case HAL_PCD_SUSPEND_CB_ID :
 432:Drivers/STM32F0xx_HAL_Driver/Src/stm32f0xx_hal_pcd.c ****         hpcd->SuspendCallback = HAL_PCD_SuspendCallback;
 433:Drivers/STM32F0xx_HAL_Driver/Src/stm32f0xx_hal_pcd.c ****         break;
 434:Drivers/STM32F0xx_HAL_Driver/Src/stm32f0xx_hal_pcd.c **** 
 435:Drivers/STM32F0xx_HAL_Driver/Src/stm32f0xx_hal_pcd.c ****       case HAL_PCD_RESUME_CB_ID :
 436:Drivers/STM32F0xx_HAL_Driver/Src/stm32f0xx_hal_pcd.c ****         hpcd->ResumeCallback = HAL_PCD_ResumeCallback;
 437:Drivers/STM32F0xx_HAL_Driver/Src/stm32f0xx_hal_pcd.c ****         break;
 438:Drivers/STM32F0xx_HAL_Driver/Src/stm32f0xx_hal_pcd.c **** 
 439:Drivers/STM32F0xx_HAL_Driver/Src/stm32f0xx_hal_pcd.c ****       case HAL_PCD_CONNECT_CB_ID :
 440:Drivers/STM32F0xx_HAL_Driver/Src/stm32f0xx_hal_pcd.c ****         hpcd->ConnectCallback = HAL_PCD_ConnectCallback;
 441:Drivers/STM32F0xx_HAL_Driver/Src/stm32f0xx_hal_pcd.c ****         break;
 442:Drivers/STM32F0xx_HAL_Driver/Src/stm32f0xx_hal_pcd.c **** 
 443:Drivers/STM32F0xx_HAL_Driver/Src/stm32f0xx_hal_pcd.c ****       case HAL_PCD_DISCONNECT_CB_ID :
 444:Drivers/STM32F0xx_HAL_Driver/Src/stm32f0xx_hal_pcd.c ****         hpcd->DisconnectCallback = HAL_PCD_DisconnectCallback;
 445:Drivers/STM32F0xx_HAL_Driver/Src/stm32f0xx_hal_pcd.c ****         break;
 446:Drivers/STM32F0xx_HAL_Driver/Src/stm32f0xx_hal_pcd.c **** 
 447:Drivers/STM32F0xx_HAL_Driver/Src/stm32f0xx_hal_pcd.c ****       case HAL_PCD_MSPINIT_CB_ID :
 448:Drivers/STM32F0xx_HAL_Driver/Src/stm32f0xx_hal_pcd.c ****         hpcd->MspInitCallback = HAL_PCD_MspInit;
 449:Drivers/STM32F0xx_HAL_Driver/Src/stm32f0xx_hal_pcd.c ****         break;
 450:Drivers/STM32F0xx_HAL_Driver/Src/stm32f0xx_hal_pcd.c **** 
 451:Drivers/STM32F0xx_HAL_Driver/Src/stm32f0xx_hal_pcd.c ****       case HAL_PCD_MSPDEINIT_CB_ID :
ARM GAS  /tmp/ccTcoz65.s 			page 14


 452:Drivers/STM32F0xx_HAL_Driver/Src/stm32f0xx_hal_pcd.c ****         hpcd->MspDeInitCallback = HAL_PCD_MspDeInit;
 453:Drivers/STM32F0xx_HAL_Driver/Src/stm32f0xx_hal_pcd.c ****         break;
 454:Drivers/STM32F0xx_HAL_Driver/Src/stm32f0xx_hal_pcd.c **** 
 455:Drivers/STM32F0xx_HAL_Driver/Src/stm32f0xx_hal_pcd.c ****       default :
 456:Drivers/STM32F0xx_HAL_Driver/Src/stm32f0xx_hal_pcd.c ****         /* Update the error code */
 457:Drivers/STM32F0xx_HAL_Driver/Src/stm32f0xx_hal_pcd.c ****         hpcd->ErrorCode |= HAL_PCD_ERROR_INVALID_CALLBACK;
 458:Drivers/STM32F0xx_HAL_Driver/Src/stm32f0xx_hal_pcd.c **** 
 459:Drivers/STM32F0xx_HAL_Driver/Src/stm32f0xx_hal_pcd.c ****         /* Return error status */
 460:Drivers/STM32F0xx_HAL_Driver/Src/stm32f0xx_hal_pcd.c ****         status =  HAL_ERROR;
 461:Drivers/STM32F0xx_HAL_Driver/Src/stm32f0xx_hal_pcd.c ****         break;
 462:Drivers/STM32F0xx_HAL_Driver/Src/stm32f0xx_hal_pcd.c ****     }
 463:Drivers/STM32F0xx_HAL_Driver/Src/stm32f0xx_hal_pcd.c ****   }
 464:Drivers/STM32F0xx_HAL_Driver/Src/stm32f0xx_hal_pcd.c ****   else if (hpcd->State == HAL_PCD_STATE_RESET)
 465:Drivers/STM32F0xx_HAL_Driver/Src/stm32f0xx_hal_pcd.c ****   {
 466:Drivers/STM32F0xx_HAL_Driver/Src/stm32f0xx_hal_pcd.c ****     switch (CallbackID)
 467:Drivers/STM32F0xx_HAL_Driver/Src/stm32f0xx_hal_pcd.c ****     {
 468:Drivers/STM32F0xx_HAL_Driver/Src/stm32f0xx_hal_pcd.c ****       case HAL_PCD_MSPINIT_CB_ID :
 469:Drivers/STM32F0xx_HAL_Driver/Src/stm32f0xx_hal_pcd.c ****         hpcd->MspInitCallback = HAL_PCD_MspInit;
 470:Drivers/STM32F0xx_HAL_Driver/Src/stm32f0xx_hal_pcd.c ****         break;
 471:Drivers/STM32F0xx_HAL_Driver/Src/stm32f0xx_hal_pcd.c **** 
 472:Drivers/STM32F0xx_HAL_Driver/Src/stm32f0xx_hal_pcd.c ****       case HAL_PCD_MSPDEINIT_CB_ID :
 473:Drivers/STM32F0xx_HAL_Driver/Src/stm32f0xx_hal_pcd.c ****         hpcd->MspDeInitCallback = HAL_PCD_MspDeInit;
 474:Drivers/STM32F0xx_HAL_Driver/Src/stm32f0xx_hal_pcd.c ****         break;
 475:Drivers/STM32F0xx_HAL_Driver/Src/stm32f0xx_hal_pcd.c **** 
 476:Drivers/STM32F0xx_HAL_Driver/Src/stm32f0xx_hal_pcd.c ****       default :
 477:Drivers/STM32F0xx_HAL_Driver/Src/stm32f0xx_hal_pcd.c ****         /* Update the error code */
 478:Drivers/STM32F0xx_HAL_Driver/Src/stm32f0xx_hal_pcd.c ****         hpcd->ErrorCode |= HAL_PCD_ERROR_INVALID_CALLBACK;
 479:Drivers/STM32F0xx_HAL_Driver/Src/stm32f0xx_hal_pcd.c **** 
 480:Drivers/STM32F0xx_HAL_Driver/Src/stm32f0xx_hal_pcd.c ****         /* Return error status */
 481:Drivers/STM32F0xx_HAL_Driver/Src/stm32f0xx_hal_pcd.c ****         status =  HAL_ERROR;
 482:Drivers/STM32F0xx_HAL_Driver/Src/stm32f0xx_hal_pcd.c ****         break;
 483:Drivers/STM32F0xx_HAL_Driver/Src/stm32f0xx_hal_pcd.c ****     }
 484:Drivers/STM32F0xx_HAL_Driver/Src/stm32f0xx_hal_pcd.c ****   }
 485:Drivers/STM32F0xx_HAL_Driver/Src/stm32f0xx_hal_pcd.c ****   else
 486:Drivers/STM32F0xx_HAL_Driver/Src/stm32f0xx_hal_pcd.c ****   {
 487:Drivers/STM32F0xx_HAL_Driver/Src/stm32f0xx_hal_pcd.c ****     /* Update the error code */
 488:Drivers/STM32F0xx_HAL_Driver/Src/stm32f0xx_hal_pcd.c ****     hpcd->ErrorCode |= HAL_PCD_ERROR_INVALID_CALLBACK;
 489:Drivers/STM32F0xx_HAL_Driver/Src/stm32f0xx_hal_pcd.c **** 
 490:Drivers/STM32F0xx_HAL_Driver/Src/stm32f0xx_hal_pcd.c ****     /* Return error status */
 491:Drivers/STM32F0xx_HAL_Driver/Src/stm32f0xx_hal_pcd.c ****     status =  HAL_ERROR;
 492:Drivers/STM32F0xx_HAL_Driver/Src/stm32f0xx_hal_pcd.c ****   }
 493:Drivers/STM32F0xx_HAL_Driver/Src/stm32f0xx_hal_pcd.c **** 
 494:Drivers/STM32F0xx_HAL_Driver/Src/stm32f0xx_hal_pcd.c ****   /* Release Lock */
 495:Drivers/STM32F0xx_HAL_Driver/Src/stm32f0xx_hal_pcd.c ****   __HAL_UNLOCK(hpcd);
 496:Drivers/STM32F0xx_HAL_Driver/Src/stm32f0xx_hal_pcd.c ****   return status;
 497:Drivers/STM32F0xx_HAL_Driver/Src/stm32f0xx_hal_pcd.c **** }
 498:Drivers/STM32F0xx_HAL_Driver/Src/stm32f0xx_hal_pcd.c **** 
 499:Drivers/STM32F0xx_HAL_Driver/Src/stm32f0xx_hal_pcd.c **** /**
 500:Drivers/STM32F0xx_HAL_Driver/Src/stm32f0xx_hal_pcd.c ****   * @brief  Register USB PCD Data OUT Stage Callback
 501:Drivers/STM32F0xx_HAL_Driver/Src/stm32f0xx_hal_pcd.c ****   *         To be used instead of the weak HAL_PCD_DataOutStageCallback() predefined callback
 502:Drivers/STM32F0xx_HAL_Driver/Src/stm32f0xx_hal_pcd.c ****   * @param  hpcd PCD handle
 503:Drivers/STM32F0xx_HAL_Driver/Src/stm32f0xx_hal_pcd.c ****   * @param  pCallback pointer to the USB PCD Data OUT Stage Callback function
 504:Drivers/STM32F0xx_HAL_Driver/Src/stm32f0xx_hal_pcd.c ****   * @retval HAL status
 505:Drivers/STM32F0xx_HAL_Driver/Src/stm32f0xx_hal_pcd.c ****   */
 506:Drivers/STM32F0xx_HAL_Driver/Src/stm32f0xx_hal_pcd.c **** HAL_StatusTypeDef HAL_PCD_RegisterDataOutStageCallback(PCD_HandleTypeDef *hpcd, pPCD_DataOutStageCa
 507:Drivers/STM32F0xx_HAL_Driver/Src/stm32f0xx_hal_pcd.c **** {
 508:Drivers/STM32F0xx_HAL_Driver/Src/stm32f0xx_hal_pcd.c ****   HAL_StatusTypeDef status = HAL_OK;
ARM GAS  /tmp/ccTcoz65.s 			page 15


 509:Drivers/STM32F0xx_HAL_Driver/Src/stm32f0xx_hal_pcd.c **** 
 510:Drivers/STM32F0xx_HAL_Driver/Src/stm32f0xx_hal_pcd.c ****   if (pCallback == NULL)
 511:Drivers/STM32F0xx_HAL_Driver/Src/stm32f0xx_hal_pcd.c ****   {
 512:Drivers/STM32F0xx_HAL_Driver/Src/stm32f0xx_hal_pcd.c ****     /* Update the error code */
 513:Drivers/STM32F0xx_HAL_Driver/Src/stm32f0xx_hal_pcd.c ****     hpcd->ErrorCode |= HAL_PCD_ERROR_INVALID_CALLBACK;
 514:Drivers/STM32F0xx_HAL_Driver/Src/stm32f0xx_hal_pcd.c **** 
 515:Drivers/STM32F0xx_HAL_Driver/Src/stm32f0xx_hal_pcd.c ****     return HAL_ERROR;
 516:Drivers/STM32F0xx_HAL_Driver/Src/stm32f0xx_hal_pcd.c ****   }
 517:Drivers/STM32F0xx_HAL_Driver/Src/stm32f0xx_hal_pcd.c **** 
 518:Drivers/STM32F0xx_HAL_Driver/Src/stm32f0xx_hal_pcd.c ****   /* Process locked */
 519:Drivers/STM32F0xx_HAL_Driver/Src/stm32f0xx_hal_pcd.c ****   __HAL_LOCK(hpcd);
 520:Drivers/STM32F0xx_HAL_Driver/Src/stm32f0xx_hal_pcd.c **** 
 521:Drivers/STM32F0xx_HAL_Driver/Src/stm32f0xx_hal_pcd.c ****   if (hpcd->State == HAL_PCD_STATE_READY)
 522:Drivers/STM32F0xx_HAL_Driver/Src/stm32f0xx_hal_pcd.c ****   {
 523:Drivers/STM32F0xx_HAL_Driver/Src/stm32f0xx_hal_pcd.c ****     hpcd->DataOutStageCallback = pCallback;
 524:Drivers/STM32F0xx_HAL_Driver/Src/stm32f0xx_hal_pcd.c ****   }
 525:Drivers/STM32F0xx_HAL_Driver/Src/stm32f0xx_hal_pcd.c ****   else
 526:Drivers/STM32F0xx_HAL_Driver/Src/stm32f0xx_hal_pcd.c ****   {
 527:Drivers/STM32F0xx_HAL_Driver/Src/stm32f0xx_hal_pcd.c ****     /* Update the error code */
 528:Drivers/STM32F0xx_HAL_Driver/Src/stm32f0xx_hal_pcd.c ****     hpcd->ErrorCode |= HAL_PCD_ERROR_INVALID_CALLBACK;
 529:Drivers/STM32F0xx_HAL_Driver/Src/stm32f0xx_hal_pcd.c **** 
 530:Drivers/STM32F0xx_HAL_Driver/Src/stm32f0xx_hal_pcd.c ****     /* Return error status */
 531:Drivers/STM32F0xx_HAL_Driver/Src/stm32f0xx_hal_pcd.c ****     status =  HAL_ERROR;
 532:Drivers/STM32F0xx_HAL_Driver/Src/stm32f0xx_hal_pcd.c ****   }
 533:Drivers/STM32F0xx_HAL_Driver/Src/stm32f0xx_hal_pcd.c **** 
 534:Drivers/STM32F0xx_HAL_Driver/Src/stm32f0xx_hal_pcd.c ****   /* Release Lock */
 535:Drivers/STM32F0xx_HAL_Driver/Src/stm32f0xx_hal_pcd.c ****   __HAL_UNLOCK(hpcd);
 536:Drivers/STM32F0xx_HAL_Driver/Src/stm32f0xx_hal_pcd.c **** 
 537:Drivers/STM32F0xx_HAL_Driver/Src/stm32f0xx_hal_pcd.c ****   return status;
 538:Drivers/STM32F0xx_HAL_Driver/Src/stm32f0xx_hal_pcd.c **** }
 539:Drivers/STM32F0xx_HAL_Driver/Src/stm32f0xx_hal_pcd.c **** 
 540:Drivers/STM32F0xx_HAL_Driver/Src/stm32f0xx_hal_pcd.c **** /**
 541:Drivers/STM32F0xx_HAL_Driver/Src/stm32f0xx_hal_pcd.c ****   * @brief  UnRegister the USB PCD Data OUT Stage Callback
 542:Drivers/STM32F0xx_HAL_Driver/Src/stm32f0xx_hal_pcd.c ****   *         USB PCD Data OUT Stage Callback is redirected to the weak HAL_PCD_DataOutStageCallback(
 543:Drivers/STM32F0xx_HAL_Driver/Src/stm32f0xx_hal_pcd.c ****   * @param  hpcd PCD handle
 544:Drivers/STM32F0xx_HAL_Driver/Src/stm32f0xx_hal_pcd.c ****   * @retval HAL status
 545:Drivers/STM32F0xx_HAL_Driver/Src/stm32f0xx_hal_pcd.c ****   */
 546:Drivers/STM32F0xx_HAL_Driver/Src/stm32f0xx_hal_pcd.c **** HAL_StatusTypeDef HAL_PCD_UnRegisterDataOutStageCallback(PCD_HandleTypeDef *hpcd)
 547:Drivers/STM32F0xx_HAL_Driver/Src/stm32f0xx_hal_pcd.c **** {
 548:Drivers/STM32F0xx_HAL_Driver/Src/stm32f0xx_hal_pcd.c ****   HAL_StatusTypeDef status = HAL_OK;
 549:Drivers/STM32F0xx_HAL_Driver/Src/stm32f0xx_hal_pcd.c **** 
 550:Drivers/STM32F0xx_HAL_Driver/Src/stm32f0xx_hal_pcd.c ****   /* Process locked */
 551:Drivers/STM32F0xx_HAL_Driver/Src/stm32f0xx_hal_pcd.c ****   __HAL_LOCK(hpcd);
 552:Drivers/STM32F0xx_HAL_Driver/Src/stm32f0xx_hal_pcd.c **** 
 553:Drivers/STM32F0xx_HAL_Driver/Src/stm32f0xx_hal_pcd.c ****   if (hpcd->State == HAL_PCD_STATE_READY)
 554:Drivers/STM32F0xx_HAL_Driver/Src/stm32f0xx_hal_pcd.c ****   {
 555:Drivers/STM32F0xx_HAL_Driver/Src/stm32f0xx_hal_pcd.c ****     hpcd->DataOutStageCallback = HAL_PCD_DataOutStageCallback; /* Legacy weak DataOutStageCallback 
 556:Drivers/STM32F0xx_HAL_Driver/Src/stm32f0xx_hal_pcd.c ****   }
 557:Drivers/STM32F0xx_HAL_Driver/Src/stm32f0xx_hal_pcd.c ****   else
 558:Drivers/STM32F0xx_HAL_Driver/Src/stm32f0xx_hal_pcd.c ****   {
 559:Drivers/STM32F0xx_HAL_Driver/Src/stm32f0xx_hal_pcd.c ****     /* Update the error code */
 560:Drivers/STM32F0xx_HAL_Driver/Src/stm32f0xx_hal_pcd.c ****     hpcd->ErrorCode |= HAL_PCD_ERROR_INVALID_CALLBACK;
 561:Drivers/STM32F0xx_HAL_Driver/Src/stm32f0xx_hal_pcd.c **** 
 562:Drivers/STM32F0xx_HAL_Driver/Src/stm32f0xx_hal_pcd.c ****     /* Return error status */
 563:Drivers/STM32F0xx_HAL_Driver/Src/stm32f0xx_hal_pcd.c ****     status =  HAL_ERROR;
 564:Drivers/STM32F0xx_HAL_Driver/Src/stm32f0xx_hal_pcd.c ****   }
 565:Drivers/STM32F0xx_HAL_Driver/Src/stm32f0xx_hal_pcd.c **** 
ARM GAS  /tmp/ccTcoz65.s 			page 16


 566:Drivers/STM32F0xx_HAL_Driver/Src/stm32f0xx_hal_pcd.c ****   /* Release Lock */
 567:Drivers/STM32F0xx_HAL_Driver/Src/stm32f0xx_hal_pcd.c ****   __HAL_UNLOCK(hpcd);
 568:Drivers/STM32F0xx_HAL_Driver/Src/stm32f0xx_hal_pcd.c **** 
 569:Drivers/STM32F0xx_HAL_Driver/Src/stm32f0xx_hal_pcd.c ****   return status;
 570:Drivers/STM32F0xx_HAL_Driver/Src/stm32f0xx_hal_pcd.c **** }
 571:Drivers/STM32F0xx_HAL_Driver/Src/stm32f0xx_hal_pcd.c **** 
 572:Drivers/STM32F0xx_HAL_Driver/Src/stm32f0xx_hal_pcd.c **** /**
 573:Drivers/STM32F0xx_HAL_Driver/Src/stm32f0xx_hal_pcd.c ****   * @brief  Register USB PCD Data IN Stage Callback
 574:Drivers/STM32F0xx_HAL_Driver/Src/stm32f0xx_hal_pcd.c ****   *         To be used instead of the weak HAL_PCD_DataInStageCallback() predefined callback
 575:Drivers/STM32F0xx_HAL_Driver/Src/stm32f0xx_hal_pcd.c ****   * @param  hpcd PCD handle
 576:Drivers/STM32F0xx_HAL_Driver/Src/stm32f0xx_hal_pcd.c ****   * @param  pCallback pointer to the USB PCD Data IN Stage Callback function
 577:Drivers/STM32F0xx_HAL_Driver/Src/stm32f0xx_hal_pcd.c ****   * @retval HAL status
 578:Drivers/STM32F0xx_HAL_Driver/Src/stm32f0xx_hal_pcd.c ****   */
 579:Drivers/STM32F0xx_HAL_Driver/Src/stm32f0xx_hal_pcd.c **** HAL_StatusTypeDef HAL_PCD_RegisterDataInStageCallback(PCD_HandleTypeDef *hpcd, pPCD_DataInStageCall
 580:Drivers/STM32F0xx_HAL_Driver/Src/stm32f0xx_hal_pcd.c **** {
 581:Drivers/STM32F0xx_HAL_Driver/Src/stm32f0xx_hal_pcd.c ****   HAL_StatusTypeDef status = HAL_OK;
 582:Drivers/STM32F0xx_HAL_Driver/Src/stm32f0xx_hal_pcd.c **** 
 583:Drivers/STM32F0xx_HAL_Driver/Src/stm32f0xx_hal_pcd.c ****   if (pCallback == NULL)
 584:Drivers/STM32F0xx_HAL_Driver/Src/stm32f0xx_hal_pcd.c ****   {
 585:Drivers/STM32F0xx_HAL_Driver/Src/stm32f0xx_hal_pcd.c ****     /* Update the error code */
 586:Drivers/STM32F0xx_HAL_Driver/Src/stm32f0xx_hal_pcd.c ****     hpcd->ErrorCode |= HAL_PCD_ERROR_INVALID_CALLBACK;
 587:Drivers/STM32F0xx_HAL_Driver/Src/stm32f0xx_hal_pcd.c **** 
 588:Drivers/STM32F0xx_HAL_Driver/Src/stm32f0xx_hal_pcd.c ****     return HAL_ERROR;
 589:Drivers/STM32F0xx_HAL_Driver/Src/stm32f0xx_hal_pcd.c ****   }
 590:Drivers/STM32F0xx_HAL_Driver/Src/stm32f0xx_hal_pcd.c **** 
 591:Drivers/STM32F0xx_HAL_Driver/Src/stm32f0xx_hal_pcd.c ****   /* Process locked */
 592:Drivers/STM32F0xx_HAL_Driver/Src/stm32f0xx_hal_pcd.c ****   __HAL_LOCK(hpcd);
 593:Drivers/STM32F0xx_HAL_Driver/Src/stm32f0xx_hal_pcd.c **** 
 594:Drivers/STM32F0xx_HAL_Driver/Src/stm32f0xx_hal_pcd.c ****   if (hpcd->State == HAL_PCD_STATE_READY)
 595:Drivers/STM32F0xx_HAL_Driver/Src/stm32f0xx_hal_pcd.c ****   {
 596:Drivers/STM32F0xx_HAL_Driver/Src/stm32f0xx_hal_pcd.c ****     hpcd->DataInStageCallback = pCallback;
 597:Drivers/STM32F0xx_HAL_Driver/Src/stm32f0xx_hal_pcd.c ****   }
 598:Drivers/STM32F0xx_HAL_Driver/Src/stm32f0xx_hal_pcd.c ****   else
 599:Drivers/STM32F0xx_HAL_Driver/Src/stm32f0xx_hal_pcd.c ****   {
 600:Drivers/STM32F0xx_HAL_Driver/Src/stm32f0xx_hal_pcd.c ****     /* Update the error code */
 601:Drivers/STM32F0xx_HAL_Driver/Src/stm32f0xx_hal_pcd.c ****     hpcd->ErrorCode |= HAL_PCD_ERROR_INVALID_CALLBACK;
 602:Drivers/STM32F0xx_HAL_Driver/Src/stm32f0xx_hal_pcd.c **** 
 603:Drivers/STM32F0xx_HAL_Driver/Src/stm32f0xx_hal_pcd.c ****     /* Return error status */
 604:Drivers/STM32F0xx_HAL_Driver/Src/stm32f0xx_hal_pcd.c ****     status =  HAL_ERROR;
 605:Drivers/STM32F0xx_HAL_Driver/Src/stm32f0xx_hal_pcd.c ****   }
 606:Drivers/STM32F0xx_HAL_Driver/Src/stm32f0xx_hal_pcd.c **** 
 607:Drivers/STM32F0xx_HAL_Driver/Src/stm32f0xx_hal_pcd.c ****   /* Release Lock */
 608:Drivers/STM32F0xx_HAL_Driver/Src/stm32f0xx_hal_pcd.c ****   __HAL_UNLOCK(hpcd);
 609:Drivers/STM32F0xx_HAL_Driver/Src/stm32f0xx_hal_pcd.c **** 
 610:Drivers/STM32F0xx_HAL_Driver/Src/stm32f0xx_hal_pcd.c ****   return status;
 611:Drivers/STM32F0xx_HAL_Driver/Src/stm32f0xx_hal_pcd.c **** }
 612:Drivers/STM32F0xx_HAL_Driver/Src/stm32f0xx_hal_pcd.c **** 
 613:Drivers/STM32F0xx_HAL_Driver/Src/stm32f0xx_hal_pcd.c **** /**
 614:Drivers/STM32F0xx_HAL_Driver/Src/stm32f0xx_hal_pcd.c ****   * @brief  UnRegister the USB PCD Data IN Stage Callback
 615:Drivers/STM32F0xx_HAL_Driver/Src/stm32f0xx_hal_pcd.c ****   *         USB PCD Data OUT Stage Callback is redirected to the weak HAL_PCD_DataInStageCallback()
 616:Drivers/STM32F0xx_HAL_Driver/Src/stm32f0xx_hal_pcd.c ****   * @param  hpcd PCD handle
 617:Drivers/STM32F0xx_HAL_Driver/Src/stm32f0xx_hal_pcd.c ****   * @retval HAL status
 618:Drivers/STM32F0xx_HAL_Driver/Src/stm32f0xx_hal_pcd.c ****   */
 619:Drivers/STM32F0xx_HAL_Driver/Src/stm32f0xx_hal_pcd.c **** HAL_StatusTypeDef HAL_PCD_UnRegisterDataInStageCallback(PCD_HandleTypeDef *hpcd)
 620:Drivers/STM32F0xx_HAL_Driver/Src/stm32f0xx_hal_pcd.c **** {
 621:Drivers/STM32F0xx_HAL_Driver/Src/stm32f0xx_hal_pcd.c ****   HAL_StatusTypeDef status = HAL_OK;
 622:Drivers/STM32F0xx_HAL_Driver/Src/stm32f0xx_hal_pcd.c **** 
ARM GAS  /tmp/ccTcoz65.s 			page 17


 623:Drivers/STM32F0xx_HAL_Driver/Src/stm32f0xx_hal_pcd.c ****   /* Process locked */
 624:Drivers/STM32F0xx_HAL_Driver/Src/stm32f0xx_hal_pcd.c ****   __HAL_LOCK(hpcd);
 625:Drivers/STM32F0xx_HAL_Driver/Src/stm32f0xx_hal_pcd.c **** 
 626:Drivers/STM32F0xx_HAL_Driver/Src/stm32f0xx_hal_pcd.c ****   if (hpcd->State == HAL_PCD_STATE_READY)
 627:Drivers/STM32F0xx_HAL_Driver/Src/stm32f0xx_hal_pcd.c ****   {
 628:Drivers/STM32F0xx_HAL_Driver/Src/stm32f0xx_hal_pcd.c ****     hpcd->DataInStageCallback = HAL_PCD_DataInStageCallback; /* Legacy weak DataInStageCallback  */
 629:Drivers/STM32F0xx_HAL_Driver/Src/stm32f0xx_hal_pcd.c ****   }
 630:Drivers/STM32F0xx_HAL_Driver/Src/stm32f0xx_hal_pcd.c ****   else
 631:Drivers/STM32F0xx_HAL_Driver/Src/stm32f0xx_hal_pcd.c ****   {
 632:Drivers/STM32F0xx_HAL_Driver/Src/stm32f0xx_hal_pcd.c ****     /* Update the error code */
 633:Drivers/STM32F0xx_HAL_Driver/Src/stm32f0xx_hal_pcd.c ****     hpcd->ErrorCode |= HAL_PCD_ERROR_INVALID_CALLBACK;
 634:Drivers/STM32F0xx_HAL_Driver/Src/stm32f0xx_hal_pcd.c **** 
 635:Drivers/STM32F0xx_HAL_Driver/Src/stm32f0xx_hal_pcd.c ****     /* Return error status */
 636:Drivers/STM32F0xx_HAL_Driver/Src/stm32f0xx_hal_pcd.c ****     status =  HAL_ERROR;
 637:Drivers/STM32F0xx_HAL_Driver/Src/stm32f0xx_hal_pcd.c ****   }
 638:Drivers/STM32F0xx_HAL_Driver/Src/stm32f0xx_hal_pcd.c **** 
 639:Drivers/STM32F0xx_HAL_Driver/Src/stm32f0xx_hal_pcd.c ****   /* Release Lock */
 640:Drivers/STM32F0xx_HAL_Driver/Src/stm32f0xx_hal_pcd.c ****   __HAL_UNLOCK(hpcd);
 641:Drivers/STM32F0xx_HAL_Driver/Src/stm32f0xx_hal_pcd.c **** 
 642:Drivers/STM32F0xx_HAL_Driver/Src/stm32f0xx_hal_pcd.c ****   return status;
 643:Drivers/STM32F0xx_HAL_Driver/Src/stm32f0xx_hal_pcd.c **** }
 644:Drivers/STM32F0xx_HAL_Driver/Src/stm32f0xx_hal_pcd.c **** 
 645:Drivers/STM32F0xx_HAL_Driver/Src/stm32f0xx_hal_pcd.c **** /**
 646:Drivers/STM32F0xx_HAL_Driver/Src/stm32f0xx_hal_pcd.c ****   * @brief  Register USB PCD Iso OUT incomplete Callback
 647:Drivers/STM32F0xx_HAL_Driver/Src/stm32f0xx_hal_pcd.c ****   *         To be used instead of the weak HAL_PCD_ISOOUTIncompleteCallback() predefined callback
 648:Drivers/STM32F0xx_HAL_Driver/Src/stm32f0xx_hal_pcd.c ****   * @param  hpcd PCD handle
 649:Drivers/STM32F0xx_HAL_Driver/Src/stm32f0xx_hal_pcd.c ****   * @param  pCallback pointer to the USB PCD Iso OUT incomplete Callback function
 650:Drivers/STM32F0xx_HAL_Driver/Src/stm32f0xx_hal_pcd.c ****   * @retval HAL status
 651:Drivers/STM32F0xx_HAL_Driver/Src/stm32f0xx_hal_pcd.c ****   */
 652:Drivers/STM32F0xx_HAL_Driver/Src/stm32f0xx_hal_pcd.c **** HAL_StatusTypeDef HAL_PCD_RegisterIsoOutIncpltCallback(PCD_HandleTypeDef *hpcd, pPCD_IsoOutIncpltCa
 653:Drivers/STM32F0xx_HAL_Driver/Src/stm32f0xx_hal_pcd.c **** {
 654:Drivers/STM32F0xx_HAL_Driver/Src/stm32f0xx_hal_pcd.c ****   HAL_StatusTypeDef status = HAL_OK;
 655:Drivers/STM32F0xx_HAL_Driver/Src/stm32f0xx_hal_pcd.c **** 
 656:Drivers/STM32F0xx_HAL_Driver/Src/stm32f0xx_hal_pcd.c ****   if (pCallback == NULL)
 657:Drivers/STM32F0xx_HAL_Driver/Src/stm32f0xx_hal_pcd.c ****   {
 658:Drivers/STM32F0xx_HAL_Driver/Src/stm32f0xx_hal_pcd.c ****     /* Update the error code */
 659:Drivers/STM32F0xx_HAL_Driver/Src/stm32f0xx_hal_pcd.c ****     hpcd->ErrorCode |= HAL_PCD_ERROR_INVALID_CALLBACK;
 660:Drivers/STM32F0xx_HAL_Driver/Src/stm32f0xx_hal_pcd.c **** 
 661:Drivers/STM32F0xx_HAL_Driver/Src/stm32f0xx_hal_pcd.c ****     return HAL_ERROR;
 662:Drivers/STM32F0xx_HAL_Driver/Src/stm32f0xx_hal_pcd.c ****   }
 663:Drivers/STM32F0xx_HAL_Driver/Src/stm32f0xx_hal_pcd.c **** 
 664:Drivers/STM32F0xx_HAL_Driver/Src/stm32f0xx_hal_pcd.c ****   /* Process locked */
 665:Drivers/STM32F0xx_HAL_Driver/Src/stm32f0xx_hal_pcd.c ****   __HAL_LOCK(hpcd);
 666:Drivers/STM32F0xx_HAL_Driver/Src/stm32f0xx_hal_pcd.c **** 
 667:Drivers/STM32F0xx_HAL_Driver/Src/stm32f0xx_hal_pcd.c ****   if (hpcd->State == HAL_PCD_STATE_READY)
 668:Drivers/STM32F0xx_HAL_Driver/Src/stm32f0xx_hal_pcd.c ****   {
 669:Drivers/STM32F0xx_HAL_Driver/Src/stm32f0xx_hal_pcd.c ****     hpcd->ISOOUTIncompleteCallback = pCallback;
 670:Drivers/STM32F0xx_HAL_Driver/Src/stm32f0xx_hal_pcd.c ****   }
 671:Drivers/STM32F0xx_HAL_Driver/Src/stm32f0xx_hal_pcd.c ****   else
 672:Drivers/STM32F0xx_HAL_Driver/Src/stm32f0xx_hal_pcd.c ****   {
 673:Drivers/STM32F0xx_HAL_Driver/Src/stm32f0xx_hal_pcd.c ****     /* Update the error code */
 674:Drivers/STM32F0xx_HAL_Driver/Src/stm32f0xx_hal_pcd.c ****     hpcd->ErrorCode |= HAL_PCD_ERROR_INVALID_CALLBACK;
 675:Drivers/STM32F0xx_HAL_Driver/Src/stm32f0xx_hal_pcd.c **** 
 676:Drivers/STM32F0xx_HAL_Driver/Src/stm32f0xx_hal_pcd.c ****     /* Return error status */
 677:Drivers/STM32F0xx_HAL_Driver/Src/stm32f0xx_hal_pcd.c ****     status =  HAL_ERROR;
 678:Drivers/STM32F0xx_HAL_Driver/Src/stm32f0xx_hal_pcd.c ****   }
 679:Drivers/STM32F0xx_HAL_Driver/Src/stm32f0xx_hal_pcd.c **** 
ARM GAS  /tmp/ccTcoz65.s 			page 18


 680:Drivers/STM32F0xx_HAL_Driver/Src/stm32f0xx_hal_pcd.c ****   /* Release Lock */
 681:Drivers/STM32F0xx_HAL_Driver/Src/stm32f0xx_hal_pcd.c ****   __HAL_UNLOCK(hpcd);
 682:Drivers/STM32F0xx_HAL_Driver/Src/stm32f0xx_hal_pcd.c **** 
 683:Drivers/STM32F0xx_HAL_Driver/Src/stm32f0xx_hal_pcd.c ****   return status;
 684:Drivers/STM32F0xx_HAL_Driver/Src/stm32f0xx_hal_pcd.c **** }
 685:Drivers/STM32F0xx_HAL_Driver/Src/stm32f0xx_hal_pcd.c **** 
 686:Drivers/STM32F0xx_HAL_Driver/Src/stm32f0xx_hal_pcd.c **** /**
 687:Drivers/STM32F0xx_HAL_Driver/Src/stm32f0xx_hal_pcd.c ****   * @brief  UnRegister the USB PCD Iso OUT incomplete Callback
 688:Drivers/STM32F0xx_HAL_Driver/Src/stm32f0xx_hal_pcd.c ****   *         USB PCD Iso OUT incomplete Callback is redirected to the weak HAL_PCD_ISOOUTIncompleteC
 689:Drivers/STM32F0xx_HAL_Driver/Src/stm32f0xx_hal_pcd.c ****   * @param  hpcd PCD handle
 690:Drivers/STM32F0xx_HAL_Driver/Src/stm32f0xx_hal_pcd.c ****   * @retval HAL status
 691:Drivers/STM32F0xx_HAL_Driver/Src/stm32f0xx_hal_pcd.c ****   */
 692:Drivers/STM32F0xx_HAL_Driver/Src/stm32f0xx_hal_pcd.c **** HAL_StatusTypeDef HAL_PCD_UnRegisterIsoOutIncpltCallback(PCD_HandleTypeDef *hpcd)
 693:Drivers/STM32F0xx_HAL_Driver/Src/stm32f0xx_hal_pcd.c **** {
 694:Drivers/STM32F0xx_HAL_Driver/Src/stm32f0xx_hal_pcd.c ****   HAL_StatusTypeDef status = HAL_OK;
 695:Drivers/STM32F0xx_HAL_Driver/Src/stm32f0xx_hal_pcd.c **** 
 696:Drivers/STM32F0xx_HAL_Driver/Src/stm32f0xx_hal_pcd.c ****   /* Process locked */
 697:Drivers/STM32F0xx_HAL_Driver/Src/stm32f0xx_hal_pcd.c ****   __HAL_LOCK(hpcd);
 698:Drivers/STM32F0xx_HAL_Driver/Src/stm32f0xx_hal_pcd.c **** 
 699:Drivers/STM32F0xx_HAL_Driver/Src/stm32f0xx_hal_pcd.c ****   if (hpcd->State == HAL_PCD_STATE_READY)
 700:Drivers/STM32F0xx_HAL_Driver/Src/stm32f0xx_hal_pcd.c ****   {
 701:Drivers/STM32F0xx_HAL_Driver/Src/stm32f0xx_hal_pcd.c ****     hpcd->ISOOUTIncompleteCallback = HAL_PCD_ISOOUTIncompleteCallback; /* Legacy weak ISOOUTIncompl
 702:Drivers/STM32F0xx_HAL_Driver/Src/stm32f0xx_hal_pcd.c ****   }
 703:Drivers/STM32F0xx_HAL_Driver/Src/stm32f0xx_hal_pcd.c ****   else
 704:Drivers/STM32F0xx_HAL_Driver/Src/stm32f0xx_hal_pcd.c ****   {
 705:Drivers/STM32F0xx_HAL_Driver/Src/stm32f0xx_hal_pcd.c ****     /* Update the error code */
 706:Drivers/STM32F0xx_HAL_Driver/Src/stm32f0xx_hal_pcd.c ****     hpcd->ErrorCode |= HAL_PCD_ERROR_INVALID_CALLBACK;
 707:Drivers/STM32F0xx_HAL_Driver/Src/stm32f0xx_hal_pcd.c **** 
 708:Drivers/STM32F0xx_HAL_Driver/Src/stm32f0xx_hal_pcd.c ****     /* Return error status */
 709:Drivers/STM32F0xx_HAL_Driver/Src/stm32f0xx_hal_pcd.c ****     status =  HAL_ERROR;
 710:Drivers/STM32F0xx_HAL_Driver/Src/stm32f0xx_hal_pcd.c ****   }
 711:Drivers/STM32F0xx_HAL_Driver/Src/stm32f0xx_hal_pcd.c **** 
 712:Drivers/STM32F0xx_HAL_Driver/Src/stm32f0xx_hal_pcd.c ****   /* Release Lock */
 713:Drivers/STM32F0xx_HAL_Driver/Src/stm32f0xx_hal_pcd.c ****   __HAL_UNLOCK(hpcd);
 714:Drivers/STM32F0xx_HAL_Driver/Src/stm32f0xx_hal_pcd.c **** 
 715:Drivers/STM32F0xx_HAL_Driver/Src/stm32f0xx_hal_pcd.c ****   return status;
 716:Drivers/STM32F0xx_HAL_Driver/Src/stm32f0xx_hal_pcd.c **** }
 717:Drivers/STM32F0xx_HAL_Driver/Src/stm32f0xx_hal_pcd.c **** 
 718:Drivers/STM32F0xx_HAL_Driver/Src/stm32f0xx_hal_pcd.c **** /**
 719:Drivers/STM32F0xx_HAL_Driver/Src/stm32f0xx_hal_pcd.c ****   * @brief  Register USB PCD Iso IN incomplete Callback
 720:Drivers/STM32F0xx_HAL_Driver/Src/stm32f0xx_hal_pcd.c ****   *         To be used instead of the weak HAL_PCD_ISOINIncompleteCallback() predefined callback
 721:Drivers/STM32F0xx_HAL_Driver/Src/stm32f0xx_hal_pcd.c ****   * @param  hpcd PCD handle
 722:Drivers/STM32F0xx_HAL_Driver/Src/stm32f0xx_hal_pcd.c ****   * @param  pCallback pointer to the USB PCD Iso IN incomplete Callback function
 723:Drivers/STM32F0xx_HAL_Driver/Src/stm32f0xx_hal_pcd.c ****   * @retval HAL status
 724:Drivers/STM32F0xx_HAL_Driver/Src/stm32f0xx_hal_pcd.c ****   */
 725:Drivers/STM32F0xx_HAL_Driver/Src/stm32f0xx_hal_pcd.c **** HAL_StatusTypeDef HAL_PCD_RegisterIsoInIncpltCallback(PCD_HandleTypeDef *hpcd, pPCD_IsoInIncpltCall
 726:Drivers/STM32F0xx_HAL_Driver/Src/stm32f0xx_hal_pcd.c **** {
 727:Drivers/STM32F0xx_HAL_Driver/Src/stm32f0xx_hal_pcd.c ****   HAL_StatusTypeDef status = HAL_OK;
 728:Drivers/STM32F0xx_HAL_Driver/Src/stm32f0xx_hal_pcd.c **** 
 729:Drivers/STM32F0xx_HAL_Driver/Src/stm32f0xx_hal_pcd.c ****   if (pCallback == NULL)
 730:Drivers/STM32F0xx_HAL_Driver/Src/stm32f0xx_hal_pcd.c ****   {
 731:Drivers/STM32F0xx_HAL_Driver/Src/stm32f0xx_hal_pcd.c ****     /* Update the error code */
 732:Drivers/STM32F0xx_HAL_Driver/Src/stm32f0xx_hal_pcd.c ****     hpcd->ErrorCode |= HAL_PCD_ERROR_INVALID_CALLBACK;
 733:Drivers/STM32F0xx_HAL_Driver/Src/stm32f0xx_hal_pcd.c **** 
 734:Drivers/STM32F0xx_HAL_Driver/Src/stm32f0xx_hal_pcd.c ****     return HAL_ERROR;
 735:Drivers/STM32F0xx_HAL_Driver/Src/stm32f0xx_hal_pcd.c ****   }
 736:Drivers/STM32F0xx_HAL_Driver/Src/stm32f0xx_hal_pcd.c **** 
ARM GAS  /tmp/ccTcoz65.s 			page 19


 737:Drivers/STM32F0xx_HAL_Driver/Src/stm32f0xx_hal_pcd.c ****   /* Process locked */
 738:Drivers/STM32F0xx_HAL_Driver/Src/stm32f0xx_hal_pcd.c ****   __HAL_LOCK(hpcd);
 739:Drivers/STM32F0xx_HAL_Driver/Src/stm32f0xx_hal_pcd.c **** 
 740:Drivers/STM32F0xx_HAL_Driver/Src/stm32f0xx_hal_pcd.c ****   if (hpcd->State == HAL_PCD_STATE_READY)
 741:Drivers/STM32F0xx_HAL_Driver/Src/stm32f0xx_hal_pcd.c ****   {
 742:Drivers/STM32F0xx_HAL_Driver/Src/stm32f0xx_hal_pcd.c ****     hpcd->ISOINIncompleteCallback = pCallback;
 743:Drivers/STM32F0xx_HAL_Driver/Src/stm32f0xx_hal_pcd.c ****   }
 744:Drivers/STM32F0xx_HAL_Driver/Src/stm32f0xx_hal_pcd.c ****   else
 745:Drivers/STM32F0xx_HAL_Driver/Src/stm32f0xx_hal_pcd.c ****   {
 746:Drivers/STM32F0xx_HAL_Driver/Src/stm32f0xx_hal_pcd.c ****     /* Update the error code */
 747:Drivers/STM32F0xx_HAL_Driver/Src/stm32f0xx_hal_pcd.c ****     hpcd->ErrorCode |= HAL_PCD_ERROR_INVALID_CALLBACK;
 748:Drivers/STM32F0xx_HAL_Driver/Src/stm32f0xx_hal_pcd.c **** 
 749:Drivers/STM32F0xx_HAL_Driver/Src/stm32f0xx_hal_pcd.c ****     /* Return error status */
 750:Drivers/STM32F0xx_HAL_Driver/Src/stm32f0xx_hal_pcd.c ****     status =  HAL_ERROR;
 751:Drivers/STM32F0xx_HAL_Driver/Src/stm32f0xx_hal_pcd.c ****   }
 752:Drivers/STM32F0xx_HAL_Driver/Src/stm32f0xx_hal_pcd.c **** 
 753:Drivers/STM32F0xx_HAL_Driver/Src/stm32f0xx_hal_pcd.c ****   /* Release Lock */
 754:Drivers/STM32F0xx_HAL_Driver/Src/stm32f0xx_hal_pcd.c ****   __HAL_UNLOCK(hpcd);
 755:Drivers/STM32F0xx_HAL_Driver/Src/stm32f0xx_hal_pcd.c **** 
 756:Drivers/STM32F0xx_HAL_Driver/Src/stm32f0xx_hal_pcd.c ****   return status;
 757:Drivers/STM32F0xx_HAL_Driver/Src/stm32f0xx_hal_pcd.c **** }
 758:Drivers/STM32F0xx_HAL_Driver/Src/stm32f0xx_hal_pcd.c **** 
 759:Drivers/STM32F0xx_HAL_Driver/Src/stm32f0xx_hal_pcd.c **** /**
 760:Drivers/STM32F0xx_HAL_Driver/Src/stm32f0xx_hal_pcd.c ****   * @brief  UnRegister the USB PCD Iso IN incomplete Callback
 761:Drivers/STM32F0xx_HAL_Driver/Src/stm32f0xx_hal_pcd.c ****   *         USB PCD Iso IN incomplete Callback is redirected to the weak HAL_PCD_ISOINIncompleteCal
 762:Drivers/STM32F0xx_HAL_Driver/Src/stm32f0xx_hal_pcd.c ****   * @param  hpcd PCD handle
 763:Drivers/STM32F0xx_HAL_Driver/Src/stm32f0xx_hal_pcd.c ****   * @retval HAL status
 764:Drivers/STM32F0xx_HAL_Driver/Src/stm32f0xx_hal_pcd.c ****   */
 765:Drivers/STM32F0xx_HAL_Driver/Src/stm32f0xx_hal_pcd.c **** HAL_StatusTypeDef HAL_PCD_UnRegisterIsoInIncpltCallback(PCD_HandleTypeDef *hpcd)
 766:Drivers/STM32F0xx_HAL_Driver/Src/stm32f0xx_hal_pcd.c **** {
 767:Drivers/STM32F0xx_HAL_Driver/Src/stm32f0xx_hal_pcd.c ****   HAL_StatusTypeDef status = HAL_OK;
 768:Drivers/STM32F0xx_HAL_Driver/Src/stm32f0xx_hal_pcd.c **** 
 769:Drivers/STM32F0xx_HAL_Driver/Src/stm32f0xx_hal_pcd.c ****   /* Process locked */
 770:Drivers/STM32F0xx_HAL_Driver/Src/stm32f0xx_hal_pcd.c ****   __HAL_LOCK(hpcd);
 771:Drivers/STM32F0xx_HAL_Driver/Src/stm32f0xx_hal_pcd.c **** 
 772:Drivers/STM32F0xx_HAL_Driver/Src/stm32f0xx_hal_pcd.c ****   if (hpcd->State == HAL_PCD_STATE_READY)
 773:Drivers/STM32F0xx_HAL_Driver/Src/stm32f0xx_hal_pcd.c ****   {
 774:Drivers/STM32F0xx_HAL_Driver/Src/stm32f0xx_hal_pcd.c ****     hpcd->ISOINIncompleteCallback = HAL_PCD_ISOINIncompleteCallback; /* Legacy weak ISOINIncomplete
 775:Drivers/STM32F0xx_HAL_Driver/Src/stm32f0xx_hal_pcd.c ****   }
 776:Drivers/STM32F0xx_HAL_Driver/Src/stm32f0xx_hal_pcd.c ****   else
 777:Drivers/STM32F0xx_HAL_Driver/Src/stm32f0xx_hal_pcd.c ****   {
 778:Drivers/STM32F0xx_HAL_Driver/Src/stm32f0xx_hal_pcd.c ****     /* Update the error code */
 779:Drivers/STM32F0xx_HAL_Driver/Src/stm32f0xx_hal_pcd.c ****     hpcd->ErrorCode |= HAL_PCD_ERROR_INVALID_CALLBACK;
 780:Drivers/STM32F0xx_HAL_Driver/Src/stm32f0xx_hal_pcd.c **** 
 781:Drivers/STM32F0xx_HAL_Driver/Src/stm32f0xx_hal_pcd.c ****     /* Return error status */
 782:Drivers/STM32F0xx_HAL_Driver/Src/stm32f0xx_hal_pcd.c ****     status =  HAL_ERROR;
 783:Drivers/STM32F0xx_HAL_Driver/Src/stm32f0xx_hal_pcd.c ****   }
 784:Drivers/STM32F0xx_HAL_Driver/Src/stm32f0xx_hal_pcd.c **** 
 785:Drivers/STM32F0xx_HAL_Driver/Src/stm32f0xx_hal_pcd.c ****   /* Release Lock */
 786:Drivers/STM32F0xx_HAL_Driver/Src/stm32f0xx_hal_pcd.c ****   __HAL_UNLOCK(hpcd);
 787:Drivers/STM32F0xx_HAL_Driver/Src/stm32f0xx_hal_pcd.c **** 
 788:Drivers/STM32F0xx_HAL_Driver/Src/stm32f0xx_hal_pcd.c ****   return status;
 789:Drivers/STM32F0xx_HAL_Driver/Src/stm32f0xx_hal_pcd.c **** }
 790:Drivers/STM32F0xx_HAL_Driver/Src/stm32f0xx_hal_pcd.c **** 
 791:Drivers/STM32F0xx_HAL_Driver/Src/stm32f0xx_hal_pcd.c **** /**
 792:Drivers/STM32F0xx_HAL_Driver/Src/stm32f0xx_hal_pcd.c ****   * @brief  Register USB PCD BCD Callback
 793:Drivers/STM32F0xx_HAL_Driver/Src/stm32f0xx_hal_pcd.c ****   *         To be used instead of the weak HAL_PCDEx_BCD_Callback() predefined callback
ARM GAS  /tmp/ccTcoz65.s 			page 20


 794:Drivers/STM32F0xx_HAL_Driver/Src/stm32f0xx_hal_pcd.c ****   * @param  hpcd PCD handle
 795:Drivers/STM32F0xx_HAL_Driver/Src/stm32f0xx_hal_pcd.c ****   * @param  pCallback pointer to the USB PCD BCD Callback function
 796:Drivers/STM32F0xx_HAL_Driver/Src/stm32f0xx_hal_pcd.c ****   * @retval HAL status
 797:Drivers/STM32F0xx_HAL_Driver/Src/stm32f0xx_hal_pcd.c ****   */
 798:Drivers/STM32F0xx_HAL_Driver/Src/stm32f0xx_hal_pcd.c **** HAL_StatusTypeDef HAL_PCD_RegisterBcdCallback(PCD_HandleTypeDef *hpcd, pPCD_BcdCallbackTypeDef pCal
 799:Drivers/STM32F0xx_HAL_Driver/Src/stm32f0xx_hal_pcd.c **** {
 800:Drivers/STM32F0xx_HAL_Driver/Src/stm32f0xx_hal_pcd.c ****   HAL_StatusTypeDef status = HAL_OK;
 801:Drivers/STM32F0xx_HAL_Driver/Src/stm32f0xx_hal_pcd.c **** 
 802:Drivers/STM32F0xx_HAL_Driver/Src/stm32f0xx_hal_pcd.c ****   if (pCallback == NULL)
 803:Drivers/STM32F0xx_HAL_Driver/Src/stm32f0xx_hal_pcd.c ****   {
 804:Drivers/STM32F0xx_HAL_Driver/Src/stm32f0xx_hal_pcd.c ****     /* Update the error code */
 805:Drivers/STM32F0xx_HAL_Driver/Src/stm32f0xx_hal_pcd.c ****     hpcd->ErrorCode |= HAL_PCD_ERROR_INVALID_CALLBACK;
 806:Drivers/STM32F0xx_HAL_Driver/Src/stm32f0xx_hal_pcd.c **** 
 807:Drivers/STM32F0xx_HAL_Driver/Src/stm32f0xx_hal_pcd.c ****     return HAL_ERROR;
 808:Drivers/STM32F0xx_HAL_Driver/Src/stm32f0xx_hal_pcd.c ****   }
 809:Drivers/STM32F0xx_HAL_Driver/Src/stm32f0xx_hal_pcd.c **** 
 810:Drivers/STM32F0xx_HAL_Driver/Src/stm32f0xx_hal_pcd.c ****   /* Process locked */
 811:Drivers/STM32F0xx_HAL_Driver/Src/stm32f0xx_hal_pcd.c ****   __HAL_LOCK(hpcd);
 812:Drivers/STM32F0xx_HAL_Driver/Src/stm32f0xx_hal_pcd.c **** 
 813:Drivers/STM32F0xx_HAL_Driver/Src/stm32f0xx_hal_pcd.c ****   if (hpcd->State == HAL_PCD_STATE_READY)
 814:Drivers/STM32F0xx_HAL_Driver/Src/stm32f0xx_hal_pcd.c ****   {
 815:Drivers/STM32F0xx_HAL_Driver/Src/stm32f0xx_hal_pcd.c ****     hpcd->BCDCallback = pCallback;
 816:Drivers/STM32F0xx_HAL_Driver/Src/stm32f0xx_hal_pcd.c ****   }
 817:Drivers/STM32F0xx_HAL_Driver/Src/stm32f0xx_hal_pcd.c ****   else
 818:Drivers/STM32F0xx_HAL_Driver/Src/stm32f0xx_hal_pcd.c ****   {
 819:Drivers/STM32F0xx_HAL_Driver/Src/stm32f0xx_hal_pcd.c ****     /* Update the error code */
 820:Drivers/STM32F0xx_HAL_Driver/Src/stm32f0xx_hal_pcd.c ****     hpcd->ErrorCode |= HAL_PCD_ERROR_INVALID_CALLBACK;
 821:Drivers/STM32F0xx_HAL_Driver/Src/stm32f0xx_hal_pcd.c **** 
 822:Drivers/STM32F0xx_HAL_Driver/Src/stm32f0xx_hal_pcd.c ****     /* Return error status */
 823:Drivers/STM32F0xx_HAL_Driver/Src/stm32f0xx_hal_pcd.c ****     status =  HAL_ERROR;
 824:Drivers/STM32F0xx_HAL_Driver/Src/stm32f0xx_hal_pcd.c ****   }
 825:Drivers/STM32F0xx_HAL_Driver/Src/stm32f0xx_hal_pcd.c **** 
 826:Drivers/STM32F0xx_HAL_Driver/Src/stm32f0xx_hal_pcd.c ****   /* Release Lock */
 827:Drivers/STM32F0xx_HAL_Driver/Src/stm32f0xx_hal_pcd.c ****   __HAL_UNLOCK(hpcd);
 828:Drivers/STM32F0xx_HAL_Driver/Src/stm32f0xx_hal_pcd.c **** 
 829:Drivers/STM32F0xx_HAL_Driver/Src/stm32f0xx_hal_pcd.c ****   return status;
 830:Drivers/STM32F0xx_HAL_Driver/Src/stm32f0xx_hal_pcd.c **** }
 831:Drivers/STM32F0xx_HAL_Driver/Src/stm32f0xx_hal_pcd.c **** 
 832:Drivers/STM32F0xx_HAL_Driver/Src/stm32f0xx_hal_pcd.c **** /**
 833:Drivers/STM32F0xx_HAL_Driver/Src/stm32f0xx_hal_pcd.c ****   * @brief  UnRegister the USB PCD BCD Callback
 834:Drivers/STM32F0xx_HAL_Driver/Src/stm32f0xx_hal_pcd.c ****   *         USB BCD Callback is redirected to the weak HAL_PCDEx_BCD_Callback() predefined callback
 835:Drivers/STM32F0xx_HAL_Driver/Src/stm32f0xx_hal_pcd.c ****   * @param  hpcd PCD handle
 836:Drivers/STM32F0xx_HAL_Driver/Src/stm32f0xx_hal_pcd.c ****   * @retval HAL status
 837:Drivers/STM32F0xx_HAL_Driver/Src/stm32f0xx_hal_pcd.c ****   */
 838:Drivers/STM32F0xx_HAL_Driver/Src/stm32f0xx_hal_pcd.c **** HAL_StatusTypeDef HAL_PCD_UnRegisterBcdCallback(PCD_HandleTypeDef *hpcd)
 839:Drivers/STM32F0xx_HAL_Driver/Src/stm32f0xx_hal_pcd.c **** {
 840:Drivers/STM32F0xx_HAL_Driver/Src/stm32f0xx_hal_pcd.c ****   HAL_StatusTypeDef status = HAL_OK;
 841:Drivers/STM32F0xx_HAL_Driver/Src/stm32f0xx_hal_pcd.c **** 
 842:Drivers/STM32F0xx_HAL_Driver/Src/stm32f0xx_hal_pcd.c ****   /* Process locked */
 843:Drivers/STM32F0xx_HAL_Driver/Src/stm32f0xx_hal_pcd.c ****   __HAL_LOCK(hpcd);
 844:Drivers/STM32F0xx_HAL_Driver/Src/stm32f0xx_hal_pcd.c **** 
 845:Drivers/STM32F0xx_HAL_Driver/Src/stm32f0xx_hal_pcd.c ****   if (hpcd->State == HAL_PCD_STATE_READY)
 846:Drivers/STM32F0xx_HAL_Driver/Src/stm32f0xx_hal_pcd.c ****   {
 847:Drivers/STM32F0xx_HAL_Driver/Src/stm32f0xx_hal_pcd.c ****     hpcd->BCDCallback = HAL_PCDEx_BCD_Callback; /* Legacy weak HAL_PCDEx_BCD_Callback  */
 848:Drivers/STM32F0xx_HAL_Driver/Src/stm32f0xx_hal_pcd.c ****   }
 849:Drivers/STM32F0xx_HAL_Driver/Src/stm32f0xx_hal_pcd.c ****   else
 850:Drivers/STM32F0xx_HAL_Driver/Src/stm32f0xx_hal_pcd.c ****   {
ARM GAS  /tmp/ccTcoz65.s 			page 21


 851:Drivers/STM32F0xx_HAL_Driver/Src/stm32f0xx_hal_pcd.c ****     /* Update the error code */
 852:Drivers/STM32F0xx_HAL_Driver/Src/stm32f0xx_hal_pcd.c ****     hpcd->ErrorCode |= HAL_PCD_ERROR_INVALID_CALLBACK;
 853:Drivers/STM32F0xx_HAL_Driver/Src/stm32f0xx_hal_pcd.c **** 
 854:Drivers/STM32F0xx_HAL_Driver/Src/stm32f0xx_hal_pcd.c ****     /* Return error status */
 855:Drivers/STM32F0xx_HAL_Driver/Src/stm32f0xx_hal_pcd.c ****     status =  HAL_ERROR;
 856:Drivers/STM32F0xx_HAL_Driver/Src/stm32f0xx_hal_pcd.c ****   }
 857:Drivers/STM32F0xx_HAL_Driver/Src/stm32f0xx_hal_pcd.c **** 
 858:Drivers/STM32F0xx_HAL_Driver/Src/stm32f0xx_hal_pcd.c ****   /* Release Lock */
 859:Drivers/STM32F0xx_HAL_Driver/Src/stm32f0xx_hal_pcd.c ****   __HAL_UNLOCK(hpcd);
 860:Drivers/STM32F0xx_HAL_Driver/Src/stm32f0xx_hal_pcd.c **** 
 861:Drivers/STM32F0xx_HAL_Driver/Src/stm32f0xx_hal_pcd.c ****   return status;
 862:Drivers/STM32F0xx_HAL_Driver/Src/stm32f0xx_hal_pcd.c **** }
 863:Drivers/STM32F0xx_HAL_Driver/Src/stm32f0xx_hal_pcd.c **** 
 864:Drivers/STM32F0xx_HAL_Driver/Src/stm32f0xx_hal_pcd.c **** /**
 865:Drivers/STM32F0xx_HAL_Driver/Src/stm32f0xx_hal_pcd.c ****   * @brief  Register USB PCD LPM Callback
 866:Drivers/STM32F0xx_HAL_Driver/Src/stm32f0xx_hal_pcd.c ****   *         To be used instead of the weak HAL_PCDEx_LPM_Callback() predefined callback
 867:Drivers/STM32F0xx_HAL_Driver/Src/stm32f0xx_hal_pcd.c ****   * @param  hpcd PCD handle
 868:Drivers/STM32F0xx_HAL_Driver/Src/stm32f0xx_hal_pcd.c ****   * @param  pCallback pointer to the USB PCD LPM Callback function
 869:Drivers/STM32F0xx_HAL_Driver/Src/stm32f0xx_hal_pcd.c ****   * @retval HAL status
 870:Drivers/STM32F0xx_HAL_Driver/Src/stm32f0xx_hal_pcd.c ****   */
 871:Drivers/STM32F0xx_HAL_Driver/Src/stm32f0xx_hal_pcd.c **** HAL_StatusTypeDef HAL_PCD_RegisterLpmCallback(PCD_HandleTypeDef *hpcd, pPCD_LpmCallbackTypeDef pCal
 872:Drivers/STM32F0xx_HAL_Driver/Src/stm32f0xx_hal_pcd.c **** {
 873:Drivers/STM32F0xx_HAL_Driver/Src/stm32f0xx_hal_pcd.c ****   HAL_StatusTypeDef status = HAL_OK;
 874:Drivers/STM32F0xx_HAL_Driver/Src/stm32f0xx_hal_pcd.c **** 
 875:Drivers/STM32F0xx_HAL_Driver/Src/stm32f0xx_hal_pcd.c ****   if (pCallback == NULL)
 876:Drivers/STM32F0xx_HAL_Driver/Src/stm32f0xx_hal_pcd.c ****   {
 877:Drivers/STM32F0xx_HAL_Driver/Src/stm32f0xx_hal_pcd.c ****     /* Update the error code */
 878:Drivers/STM32F0xx_HAL_Driver/Src/stm32f0xx_hal_pcd.c ****     hpcd->ErrorCode |= HAL_PCD_ERROR_INVALID_CALLBACK;
 879:Drivers/STM32F0xx_HAL_Driver/Src/stm32f0xx_hal_pcd.c **** 
 880:Drivers/STM32F0xx_HAL_Driver/Src/stm32f0xx_hal_pcd.c ****     return HAL_ERROR;
 881:Drivers/STM32F0xx_HAL_Driver/Src/stm32f0xx_hal_pcd.c ****   }
 882:Drivers/STM32F0xx_HAL_Driver/Src/stm32f0xx_hal_pcd.c **** 
 883:Drivers/STM32F0xx_HAL_Driver/Src/stm32f0xx_hal_pcd.c ****   /* Process locked */
 884:Drivers/STM32F0xx_HAL_Driver/Src/stm32f0xx_hal_pcd.c ****   __HAL_LOCK(hpcd);
 885:Drivers/STM32F0xx_HAL_Driver/Src/stm32f0xx_hal_pcd.c **** 
 886:Drivers/STM32F0xx_HAL_Driver/Src/stm32f0xx_hal_pcd.c ****   if (hpcd->State == HAL_PCD_STATE_READY)
 887:Drivers/STM32F0xx_HAL_Driver/Src/stm32f0xx_hal_pcd.c ****   {
 888:Drivers/STM32F0xx_HAL_Driver/Src/stm32f0xx_hal_pcd.c ****     hpcd->LPMCallback = pCallback;
 889:Drivers/STM32F0xx_HAL_Driver/Src/stm32f0xx_hal_pcd.c ****   }
 890:Drivers/STM32F0xx_HAL_Driver/Src/stm32f0xx_hal_pcd.c ****   else
 891:Drivers/STM32F0xx_HAL_Driver/Src/stm32f0xx_hal_pcd.c ****   {
 892:Drivers/STM32F0xx_HAL_Driver/Src/stm32f0xx_hal_pcd.c ****     /* Update the error code */
 893:Drivers/STM32F0xx_HAL_Driver/Src/stm32f0xx_hal_pcd.c ****     hpcd->ErrorCode |= HAL_PCD_ERROR_INVALID_CALLBACK;
 894:Drivers/STM32F0xx_HAL_Driver/Src/stm32f0xx_hal_pcd.c **** 
 895:Drivers/STM32F0xx_HAL_Driver/Src/stm32f0xx_hal_pcd.c ****     /* Return error status */
 896:Drivers/STM32F0xx_HAL_Driver/Src/stm32f0xx_hal_pcd.c ****     status =  HAL_ERROR;
 897:Drivers/STM32F0xx_HAL_Driver/Src/stm32f0xx_hal_pcd.c ****   }
 898:Drivers/STM32F0xx_HAL_Driver/Src/stm32f0xx_hal_pcd.c **** 
 899:Drivers/STM32F0xx_HAL_Driver/Src/stm32f0xx_hal_pcd.c ****   /* Release Lock */
 900:Drivers/STM32F0xx_HAL_Driver/Src/stm32f0xx_hal_pcd.c ****   __HAL_UNLOCK(hpcd);
 901:Drivers/STM32F0xx_HAL_Driver/Src/stm32f0xx_hal_pcd.c **** 
 902:Drivers/STM32F0xx_HAL_Driver/Src/stm32f0xx_hal_pcd.c ****   return status;
 903:Drivers/STM32F0xx_HAL_Driver/Src/stm32f0xx_hal_pcd.c **** }
 904:Drivers/STM32F0xx_HAL_Driver/Src/stm32f0xx_hal_pcd.c **** 
 905:Drivers/STM32F0xx_HAL_Driver/Src/stm32f0xx_hal_pcd.c **** /**
 906:Drivers/STM32F0xx_HAL_Driver/Src/stm32f0xx_hal_pcd.c ****   * @brief  UnRegister the USB PCD LPM Callback
 907:Drivers/STM32F0xx_HAL_Driver/Src/stm32f0xx_hal_pcd.c ****   *         USB LPM Callback is redirected to the weak HAL_PCDEx_LPM_Callback() predefined callback
ARM GAS  /tmp/ccTcoz65.s 			page 22


 908:Drivers/STM32F0xx_HAL_Driver/Src/stm32f0xx_hal_pcd.c ****   * @param  hpcd PCD handle
 909:Drivers/STM32F0xx_HAL_Driver/Src/stm32f0xx_hal_pcd.c ****   * @retval HAL status
 910:Drivers/STM32F0xx_HAL_Driver/Src/stm32f0xx_hal_pcd.c ****   */
 911:Drivers/STM32F0xx_HAL_Driver/Src/stm32f0xx_hal_pcd.c **** HAL_StatusTypeDef HAL_PCD_UnRegisterLpmCallback(PCD_HandleTypeDef *hpcd)
 912:Drivers/STM32F0xx_HAL_Driver/Src/stm32f0xx_hal_pcd.c **** {
 913:Drivers/STM32F0xx_HAL_Driver/Src/stm32f0xx_hal_pcd.c ****   HAL_StatusTypeDef status = HAL_OK;
 914:Drivers/STM32F0xx_HAL_Driver/Src/stm32f0xx_hal_pcd.c **** 
 915:Drivers/STM32F0xx_HAL_Driver/Src/stm32f0xx_hal_pcd.c ****   /* Process locked */
 916:Drivers/STM32F0xx_HAL_Driver/Src/stm32f0xx_hal_pcd.c ****   __HAL_LOCK(hpcd);
 917:Drivers/STM32F0xx_HAL_Driver/Src/stm32f0xx_hal_pcd.c **** 
 918:Drivers/STM32F0xx_HAL_Driver/Src/stm32f0xx_hal_pcd.c ****   if (hpcd->State == HAL_PCD_STATE_READY)
 919:Drivers/STM32F0xx_HAL_Driver/Src/stm32f0xx_hal_pcd.c ****   {
 920:Drivers/STM32F0xx_HAL_Driver/Src/stm32f0xx_hal_pcd.c ****     hpcd->LPMCallback = HAL_PCDEx_LPM_Callback; /* Legacy weak HAL_PCDEx_LPM_Callback  */
 921:Drivers/STM32F0xx_HAL_Driver/Src/stm32f0xx_hal_pcd.c ****   }
 922:Drivers/STM32F0xx_HAL_Driver/Src/stm32f0xx_hal_pcd.c ****   else
 923:Drivers/STM32F0xx_HAL_Driver/Src/stm32f0xx_hal_pcd.c ****   {
 924:Drivers/STM32F0xx_HAL_Driver/Src/stm32f0xx_hal_pcd.c ****     /* Update the error code */
 925:Drivers/STM32F0xx_HAL_Driver/Src/stm32f0xx_hal_pcd.c ****     hpcd->ErrorCode |= HAL_PCD_ERROR_INVALID_CALLBACK;
 926:Drivers/STM32F0xx_HAL_Driver/Src/stm32f0xx_hal_pcd.c **** 
 927:Drivers/STM32F0xx_HAL_Driver/Src/stm32f0xx_hal_pcd.c ****     /* Return error status */
 928:Drivers/STM32F0xx_HAL_Driver/Src/stm32f0xx_hal_pcd.c ****     status =  HAL_ERROR;
 929:Drivers/STM32F0xx_HAL_Driver/Src/stm32f0xx_hal_pcd.c ****   }
 930:Drivers/STM32F0xx_HAL_Driver/Src/stm32f0xx_hal_pcd.c **** 
 931:Drivers/STM32F0xx_HAL_Driver/Src/stm32f0xx_hal_pcd.c ****   /* Release Lock */
 932:Drivers/STM32F0xx_HAL_Driver/Src/stm32f0xx_hal_pcd.c ****   __HAL_UNLOCK(hpcd);
 933:Drivers/STM32F0xx_HAL_Driver/Src/stm32f0xx_hal_pcd.c **** 
 934:Drivers/STM32F0xx_HAL_Driver/Src/stm32f0xx_hal_pcd.c ****   return status;
 935:Drivers/STM32F0xx_HAL_Driver/Src/stm32f0xx_hal_pcd.c **** }
 936:Drivers/STM32F0xx_HAL_Driver/Src/stm32f0xx_hal_pcd.c **** #endif /* USE_HAL_PCD_REGISTER_CALLBACKS */
 937:Drivers/STM32F0xx_HAL_Driver/Src/stm32f0xx_hal_pcd.c **** 
 938:Drivers/STM32F0xx_HAL_Driver/Src/stm32f0xx_hal_pcd.c **** /**
 939:Drivers/STM32F0xx_HAL_Driver/Src/stm32f0xx_hal_pcd.c ****   * @}
 940:Drivers/STM32F0xx_HAL_Driver/Src/stm32f0xx_hal_pcd.c ****   */
 941:Drivers/STM32F0xx_HAL_Driver/Src/stm32f0xx_hal_pcd.c **** 
 942:Drivers/STM32F0xx_HAL_Driver/Src/stm32f0xx_hal_pcd.c **** /** @defgroup PCD_Exported_Functions_Group2 Input and Output operation functions
 943:Drivers/STM32F0xx_HAL_Driver/Src/stm32f0xx_hal_pcd.c ****  *  @brief   Data transfers functions
 944:Drivers/STM32F0xx_HAL_Driver/Src/stm32f0xx_hal_pcd.c ****  *
 945:Drivers/STM32F0xx_HAL_Driver/Src/stm32f0xx_hal_pcd.c **** @verbatim
 946:Drivers/STM32F0xx_HAL_Driver/Src/stm32f0xx_hal_pcd.c ****  ===============================================================================
 947:Drivers/STM32F0xx_HAL_Driver/Src/stm32f0xx_hal_pcd.c ****                       ##### IO operation functions #####
 948:Drivers/STM32F0xx_HAL_Driver/Src/stm32f0xx_hal_pcd.c ****  ===============================================================================
 949:Drivers/STM32F0xx_HAL_Driver/Src/stm32f0xx_hal_pcd.c ****     [..]
 950:Drivers/STM32F0xx_HAL_Driver/Src/stm32f0xx_hal_pcd.c ****     This subsection provides a set of functions allowing to manage the PCD data
 951:Drivers/STM32F0xx_HAL_Driver/Src/stm32f0xx_hal_pcd.c ****     transfers.
 952:Drivers/STM32F0xx_HAL_Driver/Src/stm32f0xx_hal_pcd.c **** 
 953:Drivers/STM32F0xx_HAL_Driver/Src/stm32f0xx_hal_pcd.c **** @endverbatim
 954:Drivers/STM32F0xx_HAL_Driver/Src/stm32f0xx_hal_pcd.c ****   * @{
 955:Drivers/STM32F0xx_HAL_Driver/Src/stm32f0xx_hal_pcd.c ****   */
 956:Drivers/STM32F0xx_HAL_Driver/Src/stm32f0xx_hal_pcd.c **** 
 957:Drivers/STM32F0xx_HAL_Driver/Src/stm32f0xx_hal_pcd.c **** /**
 958:Drivers/STM32F0xx_HAL_Driver/Src/stm32f0xx_hal_pcd.c ****   * @brief  Start the USB device
 959:Drivers/STM32F0xx_HAL_Driver/Src/stm32f0xx_hal_pcd.c ****   * @param  hpcd PCD handle
 960:Drivers/STM32F0xx_HAL_Driver/Src/stm32f0xx_hal_pcd.c ****   * @retval HAL status
 961:Drivers/STM32F0xx_HAL_Driver/Src/stm32f0xx_hal_pcd.c ****   */
 962:Drivers/STM32F0xx_HAL_Driver/Src/stm32f0xx_hal_pcd.c **** HAL_StatusTypeDef HAL_PCD_Start(PCD_HandleTypeDef *hpcd)
 963:Drivers/STM32F0xx_HAL_Driver/Src/stm32f0xx_hal_pcd.c **** {
 964:Drivers/STM32F0xx_HAL_Driver/Src/stm32f0xx_hal_pcd.c ****   __HAL_LOCK(hpcd);
ARM GAS  /tmp/ccTcoz65.s 			page 23


 965:Drivers/STM32F0xx_HAL_Driver/Src/stm32f0xx_hal_pcd.c ****   (void)USB_DevConnect(hpcd->Instance);
 966:Drivers/STM32F0xx_HAL_Driver/Src/stm32f0xx_hal_pcd.c ****   __HAL_PCD_ENABLE(hpcd);
 967:Drivers/STM32F0xx_HAL_Driver/Src/stm32f0xx_hal_pcd.c ****   __HAL_UNLOCK(hpcd);
 968:Drivers/STM32F0xx_HAL_Driver/Src/stm32f0xx_hal_pcd.c ****   return HAL_OK;
 969:Drivers/STM32F0xx_HAL_Driver/Src/stm32f0xx_hal_pcd.c **** }
 970:Drivers/STM32F0xx_HAL_Driver/Src/stm32f0xx_hal_pcd.c **** 
 971:Drivers/STM32F0xx_HAL_Driver/Src/stm32f0xx_hal_pcd.c **** /**
 972:Drivers/STM32F0xx_HAL_Driver/Src/stm32f0xx_hal_pcd.c ****   * @brief  Stop the USB device.
 973:Drivers/STM32F0xx_HAL_Driver/Src/stm32f0xx_hal_pcd.c ****   * @param  hpcd PCD handle
 974:Drivers/STM32F0xx_HAL_Driver/Src/stm32f0xx_hal_pcd.c ****   * @retval HAL status
 975:Drivers/STM32F0xx_HAL_Driver/Src/stm32f0xx_hal_pcd.c ****   */
 976:Drivers/STM32F0xx_HAL_Driver/Src/stm32f0xx_hal_pcd.c **** HAL_StatusTypeDef HAL_PCD_Stop(PCD_HandleTypeDef *hpcd)
 977:Drivers/STM32F0xx_HAL_Driver/Src/stm32f0xx_hal_pcd.c **** {
 978:Drivers/STM32F0xx_HAL_Driver/Src/stm32f0xx_hal_pcd.c ****   __HAL_LOCK(hpcd);
 280              		.loc 1 978 0
 281 0008 8A25     		movs	r5, #138
 282              	.LBE11:
 283              	.LBE10:
 224:Drivers/STM32F0xx_HAL_Driver/Src/stm32f0xx_hal_pcd.c **** 
 284              		.loc 1 224 0
 285 000a 0D4B     		ldr	r3, .L28
 286              	.LBB16:
 287              	.LBB14:
 288              		.loc 1 978 0
 289 000c AD00     		lsls	r5, r5, #2
 290              	.LBE14:
 291              	.LBE16:
 224:Drivers/STM32F0xx_HAL_Driver/Src/stm32f0xx_hal_pcd.c **** 
 292              		.loc 1 224 0
 293 000e C254     		strb	r2, [r0, r3]
 294              	.LVL18:
 295              	.LBB17:
 296              	.LBB15:
 297              		.loc 1 978 0
 298 0010 435D     		ldrb	r3, [r0, r5]
 299 0012 012B     		cmp	r3, #1
 300 0014 09D0     		beq	.L23
 301              	.LVL19:
 302              	.LBB12:
 303              	.LBB13:
 304 0016 0123     		movs	r3, #1
 305 0018 4355     		strb	r3, [r0, r5]
 979:Drivers/STM32F0xx_HAL_Driver/Src/stm32f0xx_hal_pcd.c ****   __HAL_PCD_DISABLE(hpcd);
 306              		.loc 1 979 0
 307 001a 0068     		ldr	r0, [r0]
 308              	.LVL20:
 309 001c FFF7FEFF 		bl	USB_DisableGlobalInt
 310              	.LVL21:
 980:Drivers/STM32F0xx_HAL_Driver/Src/stm32f0xx_hal_pcd.c **** 
 981:Drivers/STM32F0xx_HAL_Driver/Src/stm32f0xx_hal_pcd.c ****   (void)USB_StopDevice(hpcd->Instance);
 311              		.loc 1 981 0
 312 0020 2068     		ldr	r0, [r4]
 313 0022 FFF7FEFF 		bl	USB_StopDevice
 314              	.LVL22:
 982:Drivers/STM32F0xx_HAL_Driver/Src/stm32f0xx_hal_pcd.c **** 
 983:Drivers/STM32F0xx_HAL_Driver/Src/stm32f0xx_hal_pcd.c ****   __HAL_UNLOCK(hpcd);
 315              		.loc 1 983 0
ARM GAS  /tmp/ccTcoz65.s 			page 24


 316 0026 0023     		movs	r3, #0
 317 0028 6355     		strb	r3, [r4, r5]
 318              	.LVL23:
 319              	.L23:
 320              	.LBE13:
 321              	.LBE12:
 322              	.LBE15:
 323              	.LBE17:
 239:Drivers/STM32F0xx_HAL_Driver/Src/stm32f0xx_hal_pcd.c **** #endif /* USE_HAL_PCD_REGISTER_CALLBACKS */
 324              		.loc 1 239 0
 325 002a 2000     		movs	r0, r4
 326 002c FFF7FEFF 		bl	HAL_PCD_MspDeInit
 327              	.LVL24:
 242:Drivers/STM32F0xx_HAL_Driver/Src/stm32f0xx_hal_pcd.c **** 
 328              		.loc 1 242 0
 329 0030 0022     		movs	r2, #0
 244:Drivers/STM32F0xx_HAL_Driver/Src/stm32f0xx_hal_pcd.c **** }
 330              		.loc 1 244 0
 331 0032 0020     		movs	r0, #0
 242:Drivers/STM32F0xx_HAL_Driver/Src/stm32f0xx_hal_pcd.c **** 
 332              		.loc 1 242 0
 333 0034 024B     		ldr	r3, .L28
 334 0036 E254     		strb	r2, [r4, r3]
 335              	.L22:
 245:Drivers/STM32F0xx_HAL_Driver/Src/stm32f0xx_hal_pcd.c **** 
 336              		.loc 1 245 0
 337              		@ sp needed
 338              	.LVL25:
 339 0038 70BD     		pop	{r4, r5, r6, pc}
 340              	.LVL26:
 341              	.L24:
 221:Drivers/STM32F0xx_HAL_Driver/Src/stm32f0xx_hal_pcd.c ****   }
 342              		.loc 1 221 0
 343 003a 0120     		movs	r0, #1
 344              	.LVL27:
 345 003c FCE7     		b	.L22
 346              	.L29:
 347 003e C046     		.align	2
 348              	.L28:
 349 0040 29020000 		.word	553
 350              		.cfi_endproc
 351              	.LFE41:
 353              		.section	.text.HAL_PCD_Start,"ax",%progbits
 354              		.align	2
 355              		.global	HAL_PCD_Start
 356              		.code	16
 357              		.thumb_func
 359              	HAL_PCD_Start:
 360              	.LFB44:
 963:Drivers/STM32F0xx_HAL_Driver/Src/stm32f0xx_hal_pcd.c ****   __HAL_LOCK(hpcd);
 361              		.loc 1 963 0
 362              		.cfi_startproc
 363              		@ args = 0, pretend = 0, frame = 0
 364              		@ frame_needed = 0, uses_anonymous_args = 0
 365              	.LVL28:
 366 0000 70B5     		push	{r4, r5, r6, lr}
 367              	.LCFI3:
ARM GAS  /tmp/ccTcoz65.s 			page 25


 368              		.cfi_def_cfa_offset 16
 369              		.cfi_offset 4, -16
 370              		.cfi_offset 5, -12
 371              		.cfi_offset 6, -8
 372              		.cfi_offset 14, -4
 964:Drivers/STM32F0xx_HAL_Driver/Src/stm32f0xx_hal_pcd.c ****   (void)USB_DevConnect(hpcd->Instance);
 373              		.loc 1 964 0
 374 0002 8A25     		movs	r5, #138
 375 0004 AD00     		lsls	r5, r5, #2
 376 0006 435D     		ldrb	r3, [r0, r5]
 963:Drivers/STM32F0xx_HAL_Driver/Src/stm32f0xx_hal_pcd.c ****   __HAL_LOCK(hpcd);
 377              		.loc 1 963 0
 378 0008 0400     		movs	r4, r0
 964:Drivers/STM32F0xx_HAL_Driver/Src/stm32f0xx_hal_pcd.c ****   (void)USB_DevConnect(hpcd->Instance);
 379              		.loc 1 964 0
 380 000a 0220     		movs	r0, #2
 381              	.LVL29:
 382 000c 012B     		cmp	r3, #1
 383 000e 0AD0     		beq	.L31
 964:Drivers/STM32F0xx_HAL_Driver/Src/stm32f0xx_hal_pcd.c ****   (void)USB_DevConnect(hpcd->Instance);
 384              		.loc 1 964 0 is_stmt 0 discriminator 2
 385 0010 0123     		movs	r3, #1
 965:Drivers/STM32F0xx_HAL_Driver/Src/stm32f0xx_hal_pcd.c ****   __HAL_PCD_ENABLE(hpcd);
 386              		.loc 1 965 0 is_stmt 1 discriminator 2
 387 0012 2068     		ldr	r0, [r4]
 964:Drivers/STM32F0xx_HAL_Driver/Src/stm32f0xx_hal_pcd.c ****   (void)USB_DevConnect(hpcd->Instance);
 388              		.loc 1 964 0 discriminator 2
 389 0014 6355     		strb	r3, [r4, r5]
 965:Drivers/STM32F0xx_HAL_Driver/Src/stm32f0xx_hal_pcd.c ****   __HAL_PCD_ENABLE(hpcd);
 390              		.loc 1 965 0 discriminator 2
 391 0016 FFF7FEFF 		bl	USB_DevConnect
 392              	.LVL30:
 966:Drivers/STM32F0xx_HAL_Driver/Src/stm32f0xx_hal_pcd.c ****   __HAL_UNLOCK(hpcd);
 393              		.loc 1 966 0 discriminator 2
 394 001a 2068     		ldr	r0, [r4]
 395 001c FFF7FEFF 		bl	USB_EnableGlobalInt
 396              	.LVL31:
 967:Drivers/STM32F0xx_HAL_Driver/Src/stm32f0xx_hal_pcd.c ****   return HAL_OK;
 397              		.loc 1 967 0 discriminator 2
 398 0020 0023     		movs	r3, #0
 968:Drivers/STM32F0xx_HAL_Driver/Src/stm32f0xx_hal_pcd.c **** }
 399              		.loc 1 968 0 discriminator 2
 400 0022 0020     		movs	r0, #0
 967:Drivers/STM32F0xx_HAL_Driver/Src/stm32f0xx_hal_pcd.c ****   return HAL_OK;
 401              		.loc 1 967 0 discriminator 2
 402 0024 6355     		strb	r3, [r4, r5]
 403              	.L31:
 969:Drivers/STM32F0xx_HAL_Driver/Src/stm32f0xx_hal_pcd.c **** 
 404              		.loc 1 969 0
 405              		@ sp needed
 406              	.LVL32:
 407 0026 70BD     		pop	{r4, r5, r6, pc}
 408              		.cfi_endproc
 409              	.LFE44:
 411              		.section	.text.HAL_PCD_Stop,"ax",%progbits
 412              		.align	2
 413              		.global	HAL_PCD_Stop
ARM GAS  /tmp/ccTcoz65.s 			page 26


 414              		.code	16
 415              		.thumb_func
 417              	HAL_PCD_Stop:
 418              	.LFB45:
 977:Drivers/STM32F0xx_HAL_Driver/Src/stm32f0xx_hal_pcd.c ****   __HAL_LOCK(hpcd);
 419              		.loc 1 977 0
 420              		.cfi_startproc
 421              		@ args = 0, pretend = 0, frame = 0
 422              		@ frame_needed = 0, uses_anonymous_args = 0
 423              	.LVL33:
 424 0000 70B5     		push	{r4, r5, r6, lr}
 425              	.LCFI4:
 426              		.cfi_def_cfa_offset 16
 427              		.cfi_offset 4, -16
 428              		.cfi_offset 5, -12
 429              		.cfi_offset 6, -8
 430              		.cfi_offset 14, -4
 978:Drivers/STM32F0xx_HAL_Driver/Src/stm32f0xx_hal_pcd.c ****   __HAL_PCD_DISABLE(hpcd);
 431              		.loc 1 978 0
 432 0002 8A25     		movs	r5, #138
 433 0004 AD00     		lsls	r5, r5, #2
 434 0006 435D     		ldrb	r3, [r0, r5]
 977:Drivers/STM32F0xx_HAL_Driver/Src/stm32f0xx_hal_pcd.c ****   __HAL_LOCK(hpcd);
 435              		.loc 1 977 0
 436 0008 0400     		movs	r4, r0
 978:Drivers/STM32F0xx_HAL_Driver/Src/stm32f0xx_hal_pcd.c ****   __HAL_PCD_DISABLE(hpcd);
 437              		.loc 1 978 0
 438 000a 0220     		movs	r0, #2
 439              	.LVL34:
 440 000c 012B     		cmp	r3, #1
 441 000e 0AD0     		beq	.L35
 442              	.LVL35:
 443              	.LBB20:
 444              	.LBB21:
 445 0010 0123     		movs	r3, #1
 979:Drivers/STM32F0xx_HAL_Driver/Src/stm32f0xx_hal_pcd.c **** 
 446              		.loc 1 979 0
 447 0012 2068     		ldr	r0, [r4]
 978:Drivers/STM32F0xx_HAL_Driver/Src/stm32f0xx_hal_pcd.c ****   __HAL_PCD_DISABLE(hpcd);
 448              		.loc 1 978 0
 449 0014 6355     		strb	r3, [r4, r5]
 979:Drivers/STM32F0xx_HAL_Driver/Src/stm32f0xx_hal_pcd.c **** 
 450              		.loc 1 979 0
 451 0016 FFF7FEFF 		bl	USB_DisableGlobalInt
 452              	.LVL36:
 981:Drivers/STM32F0xx_HAL_Driver/Src/stm32f0xx_hal_pcd.c **** 
 453              		.loc 1 981 0
 454 001a 2068     		ldr	r0, [r4]
 455 001c FFF7FEFF 		bl	USB_StopDevice
 456              	.LVL37:
 457              		.loc 1 983 0
 458 0020 0023     		movs	r3, #0
 459 0022 0020     		movs	r0, #0
 460 0024 6355     		strb	r3, [r4, r5]
 461              	.LVL38:
 462              	.L35:
 463              	.LBE21:
ARM GAS  /tmp/ccTcoz65.s 			page 27


 464              	.LBE20:
 984:Drivers/STM32F0xx_HAL_Driver/Src/stm32f0xx_hal_pcd.c **** 
 985:Drivers/STM32F0xx_HAL_Driver/Src/stm32f0xx_hal_pcd.c ****   return HAL_OK;
 986:Drivers/STM32F0xx_HAL_Driver/Src/stm32f0xx_hal_pcd.c **** }
 465              		.loc 1 986 0
 466              		@ sp needed
 467              	.LVL39:
 468 0026 70BD     		pop	{r4, r5, r6, pc}
 469              		.cfi_endproc
 470              	.LFE45:
 472              		.section	.text.HAL_PCD_DataOutStageCallback,"ax",%progbits
 473              		.align	2
 474              		.weak	HAL_PCD_DataOutStageCallback
 475              		.code	16
 476              		.thumb_func
 478              	HAL_PCD_DataOutStageCallback:
 479              	.LFB96:
 480              		.cfi_startproc
 481              		@ args = 0, pretend = 0, frame = 0
 482              		@ frame_needed = 0, uses_anonymous_args = 0
 483              		@ link register save eliminated.
 484              		@ sp needed
 485 0000 7047     		bx	lr
 486              		.cfi_endproc
 487              	.LFE96:
 489 0002 C046     		.section	.text.HAL_PCD_DataInStageCallback,"ax",%progbits
 490              		.align	2
 491              		.weak	HAL_PCD_DataInStageCallback
 492              		.code	16
 493              		.thumb_func
 495              	HAL_PCD_DataInStageCallback:
 496              	.LFB94:
 497              		.cfi_startproc
 498              		@ args = 0, pretend = 0, frame = 0
 499              		@ frame_needed = 0, uses_anonymous_args = 0
 500              		@ link register save eliminated.
 501              		@ sp needed
 502 0000 7047     		bx	lr
 503              		.cfi_endproc
 504              	.LFE94:
 506 0002 C046     		.section	.text.HAL_PCD_SetupStageCallback,"ax",%progbits
 507              		.align	2
 508              		.weak	HAL_PCD_SetupStageCallback
 509              		.code	16
 510              		.thumb_func
 512              	HAL_PCD_SetupStageCallback:
 513              	.LFB86:
 514              		.cfi_startproc
 515              		@ args = 0, pretend = 0, frame = 0
 516              		@ frame_needed = 0, uses_anonymous_args = 0
 517              		@ link register save eliminated.
 518              		@ sp needed
 519 0000 7047     		bx	lr
 520              		.cfi_endproc
 521              	.LFE86:
 523 0002 C046     		.section	.text.HAL_PCD_SOFCallback,"ax",%progbits
 524              		.align	2
ARM GAS  /tmp/ccTcoz65.s 			page 28


 525              		.weak	HAL_PCD_SOFCallback
 526              		.code	16
 527              		.thumb_func
 529              	HAL_PCD_SOFCallback:
 530              	.LFB84:
 531              		.cfi_startproc
 532              		@ args = 0, pretend = 0, frame = 0
 533              		@ frame_needed = 0, uses_anonymous_args = 0
 534              		@ link register save eliminated.
 535              		@ sp needed
 536 0000 7047     		bx	lr
 537              		.cfi_endproc
 538              	.LFE84:
 540 0002 C046     		.section	.text.HAL_PCD_ResetCallback,"ax",%progbits
 541              		.align	2
 542              		.weak	HAL_PCD_ResetCallback
 543              		.code	16
 544              		.thumb_func
 546              	HAL_PCD_ResetCallback:
 547              	.LFB82:
 548              		.cfi_startproc
 549              		@ args = 0, pretend = 0, frame = 0
 550              		@ frame_needed = 0, uses_anonymous_args = 0
 551              		@ link register save eliminated.
 552              		@ sp needed
 553 0000 7047     		bx	lr
 554              		.cfi_endproc
 555              	.LFE82:
 557 0002 C046     		.section	.text.HAL_PCD_SuspendCallback,"ax",%progbits
 558              		.align	2
 559              		.weak	HAL_PCD_SuspendCallback
 560              		.code	16
 561              		.thumb_func
 563              	HAL_PCD_SuspendCallback:
 564              	.LFB80:
 565              		.cfi_startproc
 566              		@ args = 0, pretend = 0, frame = 0
 567              		@ frame_needed = 0, uses_anonymous_args = 0
 568              		@ link register save eliminated.
 569              		@ sp needed
 570 0000 7047     		bx	lr
 571              		.cfi_endproc
 572              	.LFE80:
 574 0002 C046     		.section	.text.HAL_PCD_ResumeCallback,"ax",%progbits
 575              		.align	2
 576              		.weak	HAL_PCD_ResumeCallback
 577              		.code	16
 578              		.thumb_func
 580              	HAL_PCD_ResumeCallback:
 581              	.LFB78:
 582              		.cfi_startproc
 583              		@ args = 0, pretend = 0, frame = 0
 584              		@ frame_needed = 0, uses_anonymous_args = 0
 585              		@ link register save eliminated.
 586              		@ sp needed
 587 0000 7047     		bx	lr
 588              		.cfi_endproc
ARM GAS  /tmp/ccTcoz65.s 			page 29


 589              	.LFE78:
 591 0002 C046     		.section	.text.HAL_PCD_ISOOUTIncompleteCallback,"ax",%progbits
 592              		.align	2
 593              		.weak	HAL_PCD_ISOOUTIncompleteCallback
 594              		.code	16
 595              		.thumb_func
 597              	HAL_PCD_ISOOUTIncompleteCallback:
 598              	.LFB92:
 599              		.cfi_startproc
 600              		@ args = 0, pretend = 0, frame = 0
 601              		@ frame_needed = 0, uses_anonymous_args = 0
 602              		@ link register save eliminated.
 603              		@ sp needed
 604 0000 7047     		bx	lr
 605              		.cfi_endproc
 606              	.LFE92:
 608 0002 C046     		.section	.text.HAL_PCD_ISOINIncompleteCallback,"ax",%progbits
 609              		.align	2
 610              		.weak	HAL_PCD_ISOINIncompleteCallback
 611              		.code	16
 612              		.thumb_func
 614              	HAL_PCD_ISOINIncompleteCallback:
 615              	.LFB55:
 987:Drivers/STM32F0xx_HAL_Driver/Src/stm32f0xx_hal_pcd.c **** 
 988:Drivers/STM32F0xx_HAL_Driver/Src/stm32f0xx_hal_pcd.c **** 
 989:Drivers/STM32F0xx_HAL_Driver/Src/stm32f0xx_hal_pcd.c **** /**
 990:Drivers/STM32F0xx_HAL_Driver/Src/stm32f0xx_hal_pcd.c ****   * @brief  This function handles PCD interrupt request.
 991:Drivers/STM32F0xx_HAL_Driver/Src/stm32f0xx_hal_pcd.c ****   * @param  hpcd PCD handle
 992:Drivers/STM32F0xx_HAL_Driver/Src/stm32f0xx_hal_pcd.c ****   * @retval HAL status
 993:Drivers/STM32F0xx_HAL_Driver/Src/stm32f0xx_hal_pcd.c ****   */
 994:Drivers/STM32F0xx_HAL_Driver/Src/stm32f0xx_hal_pcd.c **** void HAL_PCD_IRQHandler(PCD_HandleTypeDef *hpcd)
 995:Drivers/STM32F0xx_HAL_Driver/Src/stm32f0xx_hal_pcd.c **** {
 996:Drivers/STM32F0xx_HAL_Driver/Src/stm32f0xx_hal_pcd.c ****   if (__HAL_PCD_GET_FLAG(hpcd, USB_ISTR_CTR))
 997:Drivers/STM32F0xx_HAL_Driver/Src/stm32f0xx_hal_pcd.c ****   {
 998:Drivers/STM32F0xx_HAL_Driver/Src/stm32f0xx_hal_pcd.c ****     /* servicing of the endpoint correct transfer interrupt */
 999:Drivers/STM32F0xx_HAL_Driver/Src/stm32f0xx_hal_pcd.c ****     /* clear of the CTR flag into the sub */
1000:Drivers/STM32F0xx_HAL_Driver/Src/stm32f0xx_hal_pcd.c ****     (void)PCD_EP_ISR_Handler(hpcd);
1001:Drivers/STM32F0xx_HAL_Driver/Src/stm32f0xx_hal_pcd.c ****   }
1002:Drivers/STM32F0xx_HAL_Driver/Src/stm32f0xx_hal_pcd.c **** 
1003:Drivers/STM32F0xx_HAL_Driver/Src/stm32f0xx_hal_pcd.c ****   if (__HAL_PCD_GET_FLAG(hpcd, USB_ISTR_RESET))
1004:Drivers/STM32F0xx_HAL_Driver/Src/stm32f0xx_hal_pcd.c ****   {
1005:Drivers/STM32F0xx_HAL_Driver/Src/stm32f0xx_hal_pcd.c ****     __HAL_PCD_CLEAR_FLAG(hpcd, USB_ISTR_RESET);
1006:Drivers/STM32F0xx_HAL_Driver/Src/stm32f0xx_hal_pcd.c **** 
1007:Drivers/STM32F0xx_HAL_Driver/Src/stm32f0xx_hal_pcd.c **** #if (USE_HAL_PCD_REGISTER_CALLBACKS == 1U)
1008:Drivers/STM32F0xx_HAL_Driver/Src/stm32f0xx_hal_pcd.c ****     hpcd->ResetCallback(hpcd);
1009:Drivers/STM32F0xx_HAL_Driver/Src/stm32f0xx_hal_pcd.c **** #else
1010:Drivers/STM32F0xx_HAL_Driver/Src/stm32f0xx_hal_pcd.c ****     HAL_PCD_ResetCallback(hpcd);
1011:Drivers/STM32F0xx_HAL_Driver/Src/stm32f0xx_hal_pcd.c **** #endif /* USE_HAL_PCD_REGISTER_CALLBACKS */
1012:Drivers/STM32F0xx_HAL_Driver/Src/stm32f0xx_hal_pcd.c **** 
1013:Drivers/STM32F0xx_HAL_Driver/Src/stm32f0xx_hal_pcd.c ****     (void)HAL_PCD_SetAddress(hpcd, 0U);
1014:Drivers/STM32F0xx_HAL_Driver/Src/stm32f0xx_hal_pcd.c ****   }
1015:Drivers/STM32F0xx_HAL_Driver/Src/stm32f0xx_hal_pcd.c **** 
1016:Drivers/STM32F0xx_HAL_Driver/Src/stm32f0xx_hal_pcd.c ****   if (__HAL_PCD_GET_FLAG(hpcd, USB_ISTR_PMAOVR))
1017:Drivers/STM32F0xx_HAL_Driver/Src/stm32f0xx_hal_pcd.c ****   {
1018:Drivers/STM32F0xx_HAL_Driver/Src/stm32f0xx_hal_pcd.c ****     __HAL_PCD_CLEAR_FLAG(hpcd, USB_ISTR_PMAOVR);
1019:Drivers/STM32F0xx_HAL_Driver/Src/stm32f0xx_hal_pcd.c ****   }
1020:Drivers/STM32F0xx_HAL_Driver/Src/stm32f0xx_hal_pcd.c **** 
ARM GAS  /tmp/ccTcoz65.s 			page 30


1021:Drivers/STM32F0xx_HAL_Driver/Src/stm32f0xx_hal_pcd.c ****   if (__HAL_PCD_GET_FLAG(hpcd, USB_ISTR_ERR))
1022:Drivers/STM32F0xx_HAL_Driver/Src/stm32f0xx_hal_pcd.c ****   {
1023:Drivers/STM32F0xx_HAL_Driver/Src/stm32f0xx_hal_pcd.c ****     __HAL_PCD_CLEAR_FLAG(hpcd, USB_ISTR_ERR);
1024:Drivers/STM32F0xx_HAL_Driver/Src/stm32f0xx_hal_pcd.c ****   }
1025:Drivers/STM32F0xx_HAL_Driver/Src/stm32f0xx_hal_pcd.c **** 
1026:Drivers/STM32F0xx_HAL_Driver/Src/stm32f0xx_hal_pcd.c ****   if (__HAL_PCD_GET_FLAG(hpcd, USB_ISTR_WKUP))
1027:Drivers/STM32F0xx_HAL_Driver/Src/stm32f0xx_hal_pcd.c ****   {
1028:Drivers/STM32F0xx_HAL_Driver/Src/stm32f0xx_hal_pcd.c ****     hpcd->Instance->CNTR &= (uint16_t) ~(USB_CNTR_LPMODE);
1029:Drivers/STM32F0xx_HAL_Driver/Src/stm32f0xx_hal_pcd.c ****     hpcd->Instance->CNTR &= (uint16_t) ~(USB_CNTR_FSUSP);
1030:Drivers/STM32F0xx_HAL_Driver/Src/stm32f0xx_hal_pcd.c **** 
1031:Drivers/STM32F0xx_HAL_Driver/Src/stm32f0xx_hal_pcd.c ****     if (hpcd->LPM_State == LPM_L1)
1032:Drivers/STM32F0xx_HAL_Driver/Src/stm32f0xx_hal_pcd.c ****     {
1033:Drivers/STM32F0xx_HAL_Driver/Src/stm32f0xx_hal_pcd.c ****       hpcd->LPM_State = LPM_L0;
1034:Drivers/STM32F0xx_HAL_Driver/Src/stm32f0xx_hal_pcd.c **** #if (USE_HAL_PCD_REGISTER_CALLBACKS == 1U)
1035:Drivers/STM32F0xx_HAL_Driver/Src/stm32f0xx_hal_pcd.c ****       hpcd->LPMCallback(hpcd, PCD_LPM_L0_ACTIVE);
1036:Drivers/STM32F0xx_HAL_Driver/Src/stm32f0xx_hal_pcd.c **** #else
1037:Drivers/STM32F0xx_HAL_Driver/Src/stm32f0xx_hal_pcd.c ****       HAL_PCDEx_LPM_Callback(hpcd, PCD_LPM_L0_ACTIVE);
1038:Drivers/STM32F0xx_HAL_Driver/Src/stm32f0xx_hal_pcd.c **** #endif /* USE_HAL_PCD_REGISTER_CALLBACKS */
1039:Drivers/STM32F0xx_HAL_Driver/Src/stm32f0xx_hal_pcd.c ****     }
1040:Drivers/STM32F0xx_HAL_Driver/Src/stm32f0xx_hal_pcd.c **** 
1041:Drivers/STM32F0xx_HAL_Driver/Src/stm32f0xx_hal_pcd.c **** #if (USE_HAL_PCD_REGISTER_CALLBACKS == 1U)
1042:Drivers/STM32F0xx_HAL_Driver/Src/stm32f0xx_hal_pcd.c ****     hpcd->ResumeCallback(hpcd);
1043:Drivers/STM32F0xx_HAL_Driver/Src/stm32f0xx_hal_pcd.c **** #else
1044:Drivers/STM32F0xx_HAL_Driver/Src/stm32f0xx_hal_pcd.c ****     HAL_PCD_ResumeCallback(hpcd);
1045:Drivers/STM32F0xx_HAL_Driver/Src/stm32f0xx_hal_pcd.c **** #endif /* USE_HAL_PCD_REGISTER_CALLBACKS */
1046:Drivers/STM32F0xx_HAL_Driver/Src/stm32f0xx_hal_pcd.c **** 
1047:Drivers/STM32F0xx_HAL_Driver/Src/stm32f0xx_hal_pcd.c ****     __HAL_PCD_CLEAR_FLAG(hpcd, USB_ISTR_WKUP);
1048:Drivers/STM32F0xx_HAL_Driver/Src/stm32f0xx_hal_pcd.c ****   }
1049:Drivers/STM32F0xx_HAL_Driver/Src/stm32f0xx_hal_pcd.c **** 
1050:Drivers/STM32F0xx_HAL_Driver/Src/stm32f0xx_hal_pcd.c ****   if (__HAL_PCD_GET_FLAG(hpcd, USB_ISTR_SUSP))
1051:Drivers/STM32F0xx_HAL_Driver/Src/stm32f0xx_hal_pcd.c ****   {
1052:Drivers/STM32F0xx_HAL_Driver/Src/stm32f0xx_hal_pcd.c ****     /* Force low-power mode in the macrocell */
1053:Drivers/STM32F0xx_HAL_Driver/Src/stm32f0xx_hal_pcd.c ****     hpcd->Instance->CNTR |= USB_CNTR_FSUSP;
1054:Drivers/STM32F0xx_HAL_Driver/Src/stm32f0xx_hal_pcd.c **** 
1055:Drivers/STM32F0xx_HAL_Driver/Src/stm32f0xx_hal_pcd.c ****     /* clear of the ISTR bit must be done after setting of CNTR_FSUSP */
1056:Drivers/STM32F0xx_HAL_Driver/Src/stm32f0xx_hal_pcd.c ****     __HAL_PCD_CLEAR_FLAG(hpcd, USB_ISTR_SUSP);
1057:Drivers/STM32F0xx_HAL_Driver/Src/stm32f0xx_hal_pcd.c **** 
1058:Drivers/STM32F0xx_HAL_Driver/Src/stm32f0xx_hal_pcd.c ****     hpcd->Instance->CNTR |= USB_CNTR_LPMODE;
1059:Drivers/STM32F0xx_HAL_Driver/Src/stm32f0xx_hal_pcd.c **** 
1060:Drivers/STM32F0xx_HAL_Driver/Src/stm32f0xx_hal_pcd.c ****     if (__HAL_PCD_GET_FLAG(hpcd, USB_ISTR_WKUP) == 0U)
1061:Drivers/STM32F0xx_HAL_Driver/Src/stm32f0xx_hal_pcd.c ****     {
1062:Drivers/STM32F0xx_HAL_Driver/Src/stm32f0xx_hal_pcd.c **** #if (USE_HAL_PCD_REGISTER_CALLBACKS == 1U)
1063:Drivers/STM32F0xx_HAL_Driver/Src/stm32f0xx_hal_pcd.c ****       hpcd->SuspendCallback(hpcd);
1064:Drivers/STM32F0xx_HAL_Driver/Src/stm32f0xx_hal_pcd.c **** #else
1065:Drivers/STM32F0xx_HAL_Driver/Src/stm32f0xx_hal_pcd.c ****       HAL_PCD_SuspendCallback(hpcd);
1066:Drivers/STM32F0xx_HAL_Driver/Src/stm32f0xx_hal_pcd.c **** #endif /* USE_HAL_PCD_REGISTER_CALLBACKS */
1067:Drivers/STM32F0xx_HAL_Driver/Src/stm32f0xx_hal_pcd.c ****     }
1068:Drivers/STM32F0xx_HAL_Driver/Src/stm32f0xx_hal_pcd.c ****   }
1069:Drivers/STM32F0xx_HAL_Driver/Src/stm32f0xx_hal_pcd.c **** 
1070:Drivers/STM32F0xx_HAL_Driver/Src/stm32f0xx_hal_pcd.c ****   /* Handle LPM Interrupt */
1071:Drivers/STM32F0xx_HAL_Driver/Src/stm32f0xx_hal_pcd.c ****   if (__HAL_PCD_GET_FLAG(hpcd, USB_ISTR_L1REQ))
1072:Drivers/STM32F0xx_HAL_Driver/Src/stm32f0xx_hal_pcd.c ****   {
1073:Drivers/STM32F0xx_HAL_Driver/Src/stm32f0xx_hal_pcd.c ****     __HAL_PCD_CLEAR_FLAG(hpcd, USB_ISTR_L1REQ);
1074:Drivers/STM32F0xx_HAL_Driver/Src/stm32f0xx_hal_pcd.c ****     if (hpcd->LPM_State == LPM_L0)
1075:Drivers/STM32F0xx_HAL_Driver/Src/stm32f0xx_hal_pcd.c ****     {
1076:Drivers/STM32F0xx_HAL_Driver/Src/stm32f0xx_hal_pcd.c ****       /* Force suspend and low-power mode before going to L1 state*/
1077:Drivers/STM32F0xx_HAL_Driver/Src/stm32f0xx_hal_pcd.c ****       hpcd->Instance->CNTR |= USB_CNTR_LPMODE;
ARM GAS  /tmp/ccTcoz65.s 			page 31


1078:Drivers/STM32F0xx_HAL_Driver/Src/stm32f0xx_hal_pcd.c ****       hpcd->Instance->CNTR |= USB_CNTR_FSUSP;
1079:Drivers/STM32F0xx_HAL_Driver/Src/stm32f0xx_hal_pcd.c **** 
1080:Drivers/STM32F0xx_HAL_Driver/Src/stm32f0xx_hal_pcd.c ****       hpcd->LPM_State = LPM_L1;
1081:Drivers/STM32F0xx_HAL_Driver/Src/stm32f0xx_hal_pcd.c ****       hpcd->BESL = ((uint32_t)hpcd->Instance->LPMCSR & USB_LPMCSR_BESL) >> 2;
1082:Drivers/STM32F0xx_HAL_Driver/Src/stm32f0xx_hal_pcd.c **** #if (USE_HAL_PCD_REGISTER_CALLBACKS == 1U)
1083:Drivers/STM32F0xx_HAL_Driver/Src/stm32f0xx_hal_pcd.c ****       hpcd->LPMCallback(hpcd, PCD_LPM_L1_ACTIVE);
1084:Drivers/STM32F0xx_HAL_Driver/Src/stm32f0xx_hal_pcd.c **** #else
1085:Drivers/STM32F0xx_HAL_Driver/Src/stm32f0xx_hal_pcd.c ****       HAL_PCDEx_LPM_Callback(hpcd, PCD_LPM_L1_ACTIVE);
1086:Drivers/STM32F0xx_HAL_Driver/Src/stm32f0xx_hal_pcd.c **** #endif /* USE_HAL_PCD_REGISTER_CALLBACKS */
1087:Drivers/STM32F0xx_HAL_Driver/Src/stm32f0xx_hal_pcd.c ****     }
1088:Drivers/STM32F0xx_HAL_Driver/Src/stm32f0xx_hal_pcd.c ****     else
1089:Drivers/STM32F0xx_HAL_Driver/Src/stm32f0xx_hal_pcd.c ****     {
1090:Drivers/STM32F0xx_HAL_Driver/Src/stm32f0xx_hal_pcd.c **** #if (USE_HAL_PCD_REGISTER_CALLBACKS == 1U)
1091:Drivers/STM32F0xx_HAL_Driver/Src/stm32f0xx_hal_pcd.c ****       hpcd->SuspendCallback(hpcd);
1092:Drivers/STM32F0xx_HAL_Driver/Src/stm32f0xx_hal_pcd.c **** #else
1093:Drivers/STM32F0xx_HAL_Driver/Src/stm32f0xx_hal_pcd.c ****       HAL_PCD_SuspendCallback(hpcd);
1094:Drivers/STM32F0xx_HAL_Driver/Src/stm32f0xx_hal_pcd.c **** #endif /* USE_HAL_PCD_REGISTER_CALLBACKS */
1095:Drivers/STM32F0xx_HAL_Driver/Src/stm32f0xx_hal_pcd.c ****     }
1096:Drivers/STM32F0xx_HAL_Driver/Src/stm32f0xx_hal_pcd.c ****   }
1097:Drivers/STM32F0xx_HAL_Driver/Src/stm32f0xx_hal_pcd.c **** 
1098:Drivers/STM32F0xx_HAL_Driver/Src/stm32f0xx_hal_pcd.c ****   if (__HAL_PCD_GET_FLAG(hpcd, USB_ISTR_SOF))
1099:Drivers/STM32F0xx_HAL_Driver/Src/stm32f0xx_hal_pcd.c ****   {
1100:Drivers/STM32F0xx_HAL_Driver/Src/stm32f0xx_hal_pcd.c ****     __HAL_PCD_CLEAR_FLAG(hpcd, USB_ISTR_SOF);
1101:Drivers/STM32F0xx_HAL_Driver/Src/stm32f0xx_hal_pcd.c **** 
1102:Drivers/STM32F0xx_HAL_Driver/Src/stm32f0xx_hal_pcd.c **** #if (USE_HAL_PCD_REGISTER_CALLBACKS == 1U)
1103:Drivers/STM32F0xx_HAL_Driver/Src/stm32f0xx_hal_pcd.c ****     hpcd->SOFCallback(hpcd);
1104:Drivers/STM32F0xx_HAL_Driver/Src/stm32f0xx_hal_pcd.c **** #else
1105:Drivers/STM32F0xx_HAL_Driver/Src/stm32f0xx_hal_pcd.c ****     HAL_PCD_SOFCallback(hpcd);
1106:Drivers/STM32F0xx_HAL_Driver/Src/stm32f0xx_hal_pcd.c **** #endif /* USE_HAL_PCD_REGISTER_CALLBACKS */
1107:Drivers/STM32F0xx_HAL_Driver/Src/stm32f0xx_hal_pcd.c ****   }
1108:Drivers/STM32F0xx_HAL_Driver/Src/stm32f0xx_hal_pcd.c **** 
1109:Drivers/STM32F0xx_HAL_Driver/Src/stm32f0xx_hal_pcd.c ****   if (__HAL_PCD_GET_FLAG(hpcd, USB_ISTR_ESOF))
1110:Drivers/STM32F0xx_HAL_Driver/Src/stm32f0xx_hal_pcd.c ****   {
1111:Drivers/STM32F0xx_HAL_Driver/Src/stm32f0xx_hal_pcd.c ****     /* clear ESOF flag in ISTR */
1112:Drivers/STM32F0xx_HAL_Driver/Src/stm32f0xx_hal_pcd.c ****     __HAL_PCD_CLEAR_FLAG(hpcd, USB_ISTR_ESOF);
1113:Drivers/STM32F0xx_HAL_Driver/Src/stm32f0xx_hal_pcd.c ****   }
1114:Drivers/STM32F0xx_HAL_Driver/Src/stm32f0xx_hal_pcd.c **** }
1115:Drivers/STM32F0xx_HAL_Driver/Src/stm32f0xx_hal_pcd.c **** 
1116:Drivers/STM32F0xx_HAL_Driver/Src/stm32f0xx_hal_pcd.c **** 
1117:Drivers/STM32F0xx_HAL_Driver/Src/stm32f0xx_hal_pcd.c **** /**
1118:Drivers/STM32F0xx_HAL_Driver/Src/stm32f0xx_hal_pcd.c ****   * @brief  Data OUT stage callback.
1119:Drivers/STM32F0xx_HAL_Driver/Src/stm32f0xx_hal_pcd.c ****   * @param  hpcd PCD handle
1120:Drivers/STM32F0xx_HAL_Driver/Src/stm32f0xx_hal_pcd.c ****   * @param  epnum endpoint number
1121:Drivers/STM32F0xx_HAL_Driver/Src/stm32f0xx_hal_pcd.c ****   * @retval None
1122:Drivers/STM32F0xx_HAL_Driver/Src/stm32f0xx_hal_pcd.c ****   */
1123:Drivers/STM32F0xx_HAL_Driver/Src/stm32f0xx_hal_pcd.c **** __weak void HAL_PCD_DataOutStageCallback(PCD_HandleTypeDef *hpcd, uint8_t epnum)
1124:Drivers/STM32F0xx_HAL_Driver/Src/stm32f0xx_hal_pcd.c **** {
1125:Drivers/STM32F0xx_HAL_Driver/Src/stm32f0xx_hal_pcd.c ****   /* Prevent unused argument(s) compilation warning */
1126:Drivers/STM32F0xx_HAL_Driver/Src/stm32f0xx_hal_pcd.c ****   UNUSED(hpcd);
1127:Drivers/STM32F0xx_HAL_Driver/Src/stm32f0xx_hal_pcd.c ****   UNUSED(epnum);
1128:Drivers/STM32F0xx_HAL_Driver/Src/stm32f0xx_hal_pcd.c **** 
1129:Drivers/STM32F0xx_HAL_Driver/Src/stm32f0xx_hal_pcd.c ****   /* NOTE : This function should not be modified, when the callback is needed,
1130:Drivers/STM32F0xx_HAL_Driver/Src/stm32f0xx_hal_pcd.c ****             the HAL_PCD_DataOutStageCallback could be implemented in the user file
1131:Drivers/STM32F0xx_HAL_Driver/Src/stm32f0xx_hal_pcd.c ****    */
1132:Drivers/STM32F0xx_HAL_Driver/Src/stm32f0xx_hal_pcd.c **** }
1133:Drivers/STM32F0xx_HAL_Driver/Src/stm32f0xx_hal_pcd.c **** 
1134:Drivers/STM32F0xx_HAL_Driver/Src/stm32f0xx_hal_pcd.c **** /**
ARM GAS  /tmp/ccTcoz65.s 			page 32


1135:Drivers/STM32F0xx_HAL_Driver/Src/stm32f0xx_hal_pcd.c ****   * @brief  Data IN stage callback
1136:Drivers/STM32F0xx_HAL_Driver/Src/stm32f0xx_hal_pcd.c ****   * @param  hpcd PCD handle
1137:Drivers/STM32F0xx_HAL_Driver/Src/stm32f0xx_hal_pcd.c ****   * @param  epnum endpoint number
1138:Drivers/STM32F0xx_HAL_Driver/Src/stm32f0xx_hal_pcd.c ****   * @retval None
1139:Drivers/STM32F0xx_HAL_Driver/Src/stm32f0xx_hal_pcd.c ****   */
1140:Drivers/STM32F0xx_HAL_Driver/Src/stm32f0xx_hal_pcd.c **** __weak void HAL_PCD_DataInStageCallback(PCD_HandleTypeDef *hpcd, uint8_t epnum)
1141:Drivers/STM32F0xx_HAL_Driver/Src/stm32f0xx_hal_pcd.c **** {
1142:Drivers/STM32F0xx_HAL_Driver/Src/stm32f0xx_hal_pcd.c ****   /* Prevent unused argument(s) compilation warning */
1143:Drivers/STM32F0xx_HAL_Driver/Src/stm32f0xx_hal_pcd.c ****   UNUSED(hpcd);
1144:Drivers/STM32F0xx_HAL_Driver/Src/stm32f0xx_hal_pcd.c ****   UNUSED(epnum);
1145:Drivers/STM32F0xx_HAL_Driver/Src/stm32f0xx_hal_pcd.c **** 
1146:Drivers/STM32F0xx_HAL_Driver/Src/stm32f0xx_hal_pcd.c ****   /* NOTE : This function should not be modified, when the callback is needed,
1147:Drivers/STM32F0xx_HAL_Driver/Src/stm32f0xx_hal_pcd.c ****             the HAL_PCD_DataInStageCallback could be implemented in the user file
1148:Drivers/STM32F0xx_HAL_Driver/Src/stm32f0xx_hal_pcd.c ****    */
1149:Drivers/STM32F0xx_HAL_Driver/Src/stm32f0xx_hal_pcd.c **** }
1150:Drivers/STM32F0xx_HAL_Driver/Src/stm32f0xx_hal_pcd.c **** /**
1151:Drivers/STM32F0xx_HAL_Driver/Src/stm32f0xx_hal_pcd.c ****   * @brief  Setup stage callback
1152:Drivers/STM32F0xx_HAL_Driver/Src/stm32f0xx_hal_pcd.c ****   * @param  hpcd PCD handle
1153:Drivers/STM32F0xx_HAL_Driver/Src/stm32f0xx_hal_pcd.c ****   * @retval None
1154:Drivers/STM32F0xx_HAL_Driver/Src/stm32f0xx_hal_pcd.c ****   */
1155:Drivers/STM32F0xx_HAL_Driver/Src/stm32f0xx_hal_pcd.c **** __weak void HAL_PCD_SetupStageCallback(PCD_HandleTypeDef *hpcd)
1156:Drivers/STM32F0xx_HAL_Driver/Src/stm32f0xx_hal_pcd.c **** {
1157:Drivers/STM32F0xx_HAL_Driver/Src/stm32f0xx_hal_pcd.c ****   /* Prevent unused argument(s) compilation warning */
1158:Drivers/STM32F0xx_HAL_Driver/Src/stm32f0xx_hal_pcd.c ****   UNUSED(hpcd);
1159:Drivers/STM32F0xx_HAL_Driver/Src/stm32f0xx_hal_pcd.c **** 
1160:Drivers/STM32F0xx_HAL_Driver/Src/stm32f0xx_hal_pcd.c ****   /* NOTE : This function should not be modified, when the callback is needed,
1161:Drivers/STM32F0xx_HAL_Driver/Src/stm32f0xx_hal_pcd.c ****             the HAL_PCD_SetupStageCallback could be implemented in the user file
1162:Drivers/STM32F0xx_HAL_Driver/Src/stm32f0xx_hal_pcd.c ****    */
1163:Drivers/STM32F0xx_HAL_Driver/Src/stm32f0xx_hal_pcd.c **** }
1164:Drivers/STM32F0xx_HAL_Driver/Src/stm32f0xx_hal_pcd.c **** 
1165:Drivers/STM32F0xx_HAL_Driver/Src/stm32f0xx_hal_pcd.c **** /**
1166:Drivers/STM32F0xx_HAL_Driver/Src/stm32f0xx_hal_pcd.c ****   * @brief  USB Start Of Frame callback.
1167:Drivers/STM32F0xx_HAL_Driver/Src/stm32f0xx_hal_pcd.c ****   * @param  hpcd PCD handle
1168:Drivers/STM32F0xx_HAL_Driver/Src/stm32f0xx_hal_pcd.c ****   * @retval None
1169:Drivers/STM32F0xx_HAL_Driver/Src/stm32f0xx_hal_pcd.c ****   */
1170:Drivers/STM32F0xx_HAL_Driver/Src/stm32f0xx_hal_pcd.c **** __weak void HAL_PCD_SOFCallback(PCD_HandleTypeDef *hpcd)
1171:Drivers/STM32F0xx_HAL_Driver/Src/stm32f0xx_hal_pcd.c **** {
1172:Drivers/STM32F0xx_HAL_Driver/Src/stm32f0xx_hal_pcd.c ****   /* Prevent unused argument(s) compilation warning */
1173:Drivers/STM32F0xx_HAL_Driver/Src/stm32f0xx_hal_pcd.c ****   UNUSED(hpcd);
1174:Drivers/STM32F0xx_HAL_Driver/Src/stm32f0xx_hal_pcd.c **** 
1175:Drivers/STM32F0xx_HAL_Driver/Src/stm32f0xx_hal_pcd.c ****   /* NOTE : This function should not be modified, when the callback is needed,
1176:Drivers/STM32F0xx_HAL_Driver/Src/stm32f0xx_hal_pcd.c ****             the HAL_PCD_SOFCallback could be implemented in the user file
1177:Drivers/STM32F0xx_HAL_Driver/Src/stm32f0xx_hal_pcd.c ****    */
1178:Drivers/STM32F0xx_HAL_Driver/Src/stm32f0xx_hal_pcd.c **** }
1179:Drivers/STM32F0xx_HAL_Driver/Src/stm32f0xx_hal_pcd.c **** 
1180:Drivers/STM32F0xx_HAL_Driver/Src/stm32f0xx_hal_pcd.c **** /**
1181:Drivers/STM32F0xx_HAL_Driver/Src/stm32f0xx_hal_pcd.c ****   * @brief  USB Reset callback.
1182:Drivers/STM32F0xx_HAL_Driver/Src/stm32f0xx_hal_pcd.c ****   * @param  hpcd PCD handle
1183:Drivers/STM32F0xx_HAL_Driver/Src/stm32f0xx_hal_pcd.c ****   * @retval None
1184:Drivers/STM32F0xx_HAL_Driver/Src/stm32f0xx_hal_pcd.c ****   */
1185:Drivers/STM32F0xx_HAL_Driver/Src/stm32f0xx_hal_pcd.c **** __weak void HAL_PCD_ResetCallback(PCD_HandleTypeDef *hpcd)
1186:Drivers/STM32F0xx_HAL_Driver/Src/stm32f0xx_hal_pcd.c **** {
1187:Drivers/STM32F0xx_HAL_Driver/Src/stm32f0xx_hal_pcd.c ****   /* Prevent unused argument(s) compilation warning */
1188:Drivers/STM32F0xx_HAL_Driver/Src/stm32f0xx_hal_pcd.c ****   UNUSED(hpcd);
1189:Drivers/STM32F0xx_HAL_Driver/Src/stm32f0xx_hal_pcd.c **** 
1190:Drivers/STM32F0xx_HAL_Driver/Src/stm32f0xx_hal_pcd.c ****   /* NOTE : This function should not be modified, when the callback is needed,
1191:Drivers/STM32F0xx_HAL_Driver/Src/stm32f0xx_hal_pcd.c ****             the HAL_PCD_ResetCallback could be implemented in the user file
ARM GAS  /tmp/ccTcoz65.s 			page 33


1192:Drivers/STM32F0xx_HAL_Driver/Src/stm32f0xx_hal_pcd.c ****    */
1193:Drivers/STM32F0xx_HAL_Driver/Src/stm32f0xx_hal_pcd.c **** }
1194:Drivers/STM32F0xx_HAL_Driver/Src/stm32f0xx_hal_pcd.c **** 
1195:Drivers/STM32F0xx_HAL_Driver/Src/stm32f0xx_hal_pcd.c **** /**
1196:Drivers/STM32F0xx_HAL_Driver/Src/stm32f0xx_hal_pcd.c ****   * @brief  Suspend event callback.
1197:Drivers/STM32F0xx_HAL_Driver/Src/stm32f0xx_hal_pcd.c ****   * @param  hpcd PCD handle
1198:Drivers/STM32F0xx_HAL_Driver/Src/stm32f0xx_hal_pcd.c ****   * @retval None
1199:Drivers/STM32F0xx_HAL_Driver/Src/stm32f0xx_hal_pcd.c ****   */
1200:Drivers/STM32F0xx_HAL_Driver/Src/stm32f0xx_hal_pcd.c **** __weak void HAL_PCD_SuspendCallback(PCD_HandleTypeDef *hpcd)
1201:Drivers/STM32F0xx_HAL_Driver/Src/stm32f0xx_hal_pcd.c **** {
1202:Drivers/STM32F0xx_HAL_Driver/Src/stm32f0xx_hal_pcd.c ****   /* Prevent unused argument(s) compilation warning */
1203:Drivers/STM32F0xx_HAL_Driver/Src/stm32f0xx_hal_pcd.c ****   UNUSED(hpcd);
1204:Drivers/STM32F0xx_HAL_Driver/Src/stm32f0xx_hal_pcd.c **** 
1205:Drivers/STM32F0xx_HAL_Driver/Src/stm32f0xx_hal_pcd.c ****   /* NOTE : This function should not be modified, when the callback is needed,
1206:Drivers/STM32F0xx_HAL_Driver/Src/stm32f0xx_hal_pcd.c ****             the HAL_PCD_SuspendCallback could be implemented in the user file
1207:Drivers/STM32F0xx_HAL_Driver/Src/stm32f0xx_hal_pcd.c ****    */
1208:Drivers/STM32F0xx_HAL_Driver/Src/stm32f0xx_hal_pcd.c **** }
1209:Drivers/STM32F0xx_HAL_Driver/Src/stm32f0xx_hal_pcd.c **** 
1210:Drivers/STM32F0xx_HAL_Driver/Src/stm32f0xx_hal_pcd.c **** /**
1211:Drivers/STM32F0xx_HAL_Driver/Src/stm32f0xx_hal_pcd.c ****   * @brief  Resume event callback.
1212:Drivers/STM32F0xx_HAL_Driver/Src/stm32f0xx_hal_pcd.c ****   * @param  hpcd PCD handle
1213:Drivers/STM32F0xx_HAL_Driver/Src/stm32f0xx_hal_pcd.c ****   * @retval None
1214:Drivers/STM32F0xx_HAL_Driver/Src/stm32f0xx_hal_pcd.c ****   */
1215:Drivers/STM32F0xx_HAL_Driver/Src/stm32f0xx_hal_pcd.c **** __weak void HAL_PCD_ResumeCallback(PCD_HandleTypeDef *hpcd)
1216:Drivers/STM32F0xx_HAL_Driver/Src/stm32f0xx_hal_pcd.c **** {
1217:Drivers/STM32F0xx_HAL_Driver/Src/stm32f0xx_hal_pcd.c ****   /* Prevent unused argument(s) compilation warning */
1218:Drivers/STM32F0xx_HAL_Driver/Src/stm32f0xx_hal_pcd.c ****   UNUSED(hpcd);
1219:Drivers/STM32F0xx_HAL_Driver/Src/stm32f0xx_hal_pcd.c **** 
1220:Drivers/STM32F0xx_HAL_Driver/Src/stm32f0xx_hal_pcd.c ****   /* NOTE : This function should not be modified, when the callback is needed,
1221:Drivers/STM32F0xx_HAL_Driver/Src/stm32f0xx_hal_pcd.c ****             the HAL_PCD_ResumeCallback could be implemented in the user file
1222:Drivers/STM32F0xx_HAL_Driver/Src/stm32f0xx_hal_pcd.c ****    */
1223:Drivers/STM32F0xx_HAL_Driver/Src/stm32f0xx_hal_pcd.c **** }
1224:Drivers/STM32F0xx_HAL_Driver/Src/stm32f0xx_hal_pcd.c **** 
1225:Drivers/STM32F0xx_HAL_Driver/Src/stm32f0xx_hal_pcd.c **** /**
1226:Drivers/STM32F0xx_HAL_Driver/Src/stm32f0xx_hal_pcd.c ****   * @brief  Incomplete ISO OUT callback.
1227:Drivers/STM32F0xx_HAL_Driver/Src/stm32f0xx_hal_pcd.c ****   * @param  hpcd PCD handle
1228:Drivers/STM32F0xx_HAL_Driver/Src/stm32f0xx_hal_pcd.c ****   * @param  epnum endpoint number
1229:Drivers/STM32F0xx_HAL_Driver/Src/stm32f0xx_hal_pcd.c ****   * @retval None
1230:Drivers/STM32F0xx_HAL_Driver/Src/stm32f0xx_hal_pcd.c ****   */
1231:Drivers/STM32F0xx_HAL_Driver/Src/stm32f0xx_hal_pcd.c **** __weak void HAL_PCD_ISOOUTIncompleteCallback(PCD_HandleTypeDef *hpcd, uint8_t epnum)
1232:Drivers/STM32F0xx_HAL_Driver/Src/stm32f0xx_hal_pcd.c **** {
1233:Drivers/STM32F0xx_HAL_Driver/Src/stm32f0xx_hal_pcd.c ****   /* Prevent unused argument(s) compilation warning */
1234:Drivers/STM32F0xx_HAL_Driver/Src/stm32f0xx_hal_pcd.c ****   UNUSED(hpcd);
1235:Drivers/STM32F0xx_HAL_Driver/Src/stm32f0xx_hal_pcd.c ****   UNUSED(epnum);
1236:Drivers/STM32F0xx_HAL_Driver/Src/stm32f0xx_hal_pcd.c **** 
1237:Drivers/STM32F0xx_HAL_Driver/Src/stm32f0xx_hal_pcd.c ****   /* NOTE : This function should not be modified, when the callback is needed,
1238:Drivers/STM32F0xx_HAL_Driver/Src/stm32f0xx_hal_pcd.c ****             the HAL_PCD_ISOOUTIncompleteCallback could be implemented in the user file
1239:Drivers/STM32F0xx_HAL_Driver/Src/stm32f0xx_hal_pcd.c ****    */
1240:Drivers/STM32F0xx_HAL_Driver/Src/stm32f0xx_hal_pcd.c **** }
1241:Drivers/STM32F0xx_HAL_Driver/Src/stm32f0xx_hal_pcd.c **** 
1242:Drivers/STM32F0xx_HAL_Driver/Src/stm32f0xx_hal_pcd.c **** /**
1243:Drivers/STM32F0xx_HAL_Driver/Src/stm32f0xx_hal_pcd.c ****   * @brief  Incomplete ISO IN callback.
1244:Drivers/STM32F0xx_HAL_Driver/Src/stm32f0xx_hal_pcd.c ****   * @param  hpcd PCD handle
1245:Drivers/STM32F0xx_HAL_Driver/Src/stm32f0xx_hal_pcd.c ****   * @param  epnum endpoint number
1246:Drivers/STM32F0xx_HAL_Driver/Src/stm32f0xx_hal_pcd.c ****   * @retval None
1247:Drivers/STM32F0xx_HAL_Driver/Src/stm32f0xx_hal_pcd.c ****   */
1248:Drivers/STM32F0xx_HAL_Driver/Src/stm32f0xx_hal_pcd.c **** __weak void HAL_PCD_ISOINIncompleteCallback(PCD_HandleTypeDef *hpcd, uint8_t epnum)
ARM GAS  /tmp/ccTcoz65.s 			page 34


1249:Drivers/STM32F0xx_HAL_Driver/Src/stm32f0xx_hal_pcd.c **** {
 616              		.loc 1 1249 0
 617              		.cfi_startproc
 618              		@ args = 0, pretend = 0, frame = 0
 619              		@ frame_needed = 0, uses_anonymous_args = 0
 620              		@ link register save eliminated.
 621              	.LVL40:
1250:Drivers/STM32F0xx_HAL_Driver/Src/stm32f0xx_hal_pcd.c ****   /* Prevent unused argument(s) compilation warning */
1251:Drivers/STM32F0xx_HAL_Driver/Src/stm32f0xx_hal_pcd.c ****   UNUSED(hpcd);
1252:Drivers/STM32F0xx_HAL_Driver/Src/stm32f0xx_hal_pcd.c ****   UNUSED(epnum);
1253:Drivers/STM32F0xx_HAL_Driver/Src/stm32f0xx_hal_pcd.c **** 
1254:Drivers/STM32F0xx_HAL_Driver/Src/stm32f0xx_hal_pcd.c ****   /* NOTE : This function should not be modified, when the callback is needed,
1255:Drivers/STM32F0xx_HAL_Driver/Src/stm32f0xx_hal_pcd.c ****             the HAL_PCD_ISOINIncompleteCallback could be implemented in the user file
1256:Drivers/STM32F0xx_HAL_Driver/Src/stm32f0xx_hal_pcd.c ****    */
1257:Drivers/STM32F0xx_HAL_Driver/Src/stm32f0xx_hal_pcd.c **** }
 622              		.loc 1 1257 0
 623              		@ sp needed
 624 0000 7047     		bx	lr
 625              		.cfi_endproc
 626              	.LFE55:
 628 0002 C046     		.section	.text.HAL_PCD_ConnectCallback,"ax",%progbits
 629              		.align	2
 630              		.weak	HAL_PCD_ConnectCallback
 631              		.code	16
 632              		.thumb_func
 634              	HAL_PCD_ConnectCallback:
 635              	.LFB76:
 636              		.cfi_startproc
 637              		@ args = 0, pretend = 0, frame = 0
 638              		@ frame_needed = 0, uses_anonymous_args = 0
 639              		@ link register save eliminated.
 640              		@ sp needed
 641 0000 7047     		bx	lr
 642              		.cfi_endproc
 643              	.LFE76:
 645 0002 C046     		.section	.text.HAL_PCD_DisconnectCallback,"ax",%progbits
 646              		.align	2
 647              		.weak	HAL_PCD_DisconnectCallback
 648              		.code	16
 649              		.thumb_func
 651              	HAL_PCD_DisconnectCallback:
 652              	.LFB57:
1258:Drivers/STM32F0xx_HAL_Driver/Src/stm32f0xx_hal_pcd.c **** 
1259:Drivers/STM32F0xx_HAL_Driver/Src/stm32f0xx_hal_pcd.c **** /**
1260:Drivers/STM32F0xx_HAL_Driver/Src/stm32f0xx_hal_pcd.c ****   * @brief  Connection event callback.
1261:Drivers/STM32F0xx_HAL_Driver/Src/stm32f0xx_hal_pcd.c ****   * @param  hpcd PCD handle
1262:Drivers/STM32F0xx_HAL_Driver/Src/stm32f0xx_hal_pcd.c ****   * @retval None
1263:Drivers/STM32F0xx_HAL_Driver/Src/stm32f0xx_hal_pcd.c ****   */
1264:Drivers/STM32F0xx_HAL_Driver/Src/stm32f0xx_hal_pcd.c **** __weak void HAL_PCD_ConnectCallback(PCD_HandleTypeDef *hpcd)
1265:Drivers/STM32F0xx_HAL_Driver/Src/stm32f0xx_hal_pcd.c **** {
1266:Drivers/STM32F0xx_HAL_Driver/Src/stm32f0xx_hal_pcd.c ****   /* Prevent unused argument(s) compilation warning */
1267:Drivers/STM32F0xx_HAL_Driver/Src/stm32f0xx_hal_pcd.c ****   UNUSED(hpcd);
1268:Drivers/STM32F0xx_HAL_Driver/Src/stm32f0xx_hal_pcd.c **** 
1269:Drivers/STM32F0xx_HAL_Driver/Src/stm32f0xx_hal_pcd.c ****   /* NOTE : This function should not be modified, when the callback is needed,
1270:Drivers/STM32F0xx_HAL_Driver/Src/stm32f0xx_hal_pcd.c ****             the HAL_PCD_ConnectCallback could be implemented in the user file
1271:Drivers/STM32F0xx_HAL_Driver/Src/stm32f0xx_hal_pcd.c ****    */
1272:Drivers/STM32F0xx_HAL_Driver/Src/stm32f0xx_hal_pcd.c **** }
ARM GAS  /tmp/ccTcoz65.s 			page 35


1273:Drivers/STM32F0xx_HAL_Driver/Src/stm32f0xx_hal_pcd.c **** 
1274:Drivers/STM32F0xx_HAL_Driver/Src/stm32f0xx_hal_pcd.c **** /**
1275:Drivers/STM32F0xx_HAL_Driver/Src/stm32f0xx_hal_pcd.c ****   * @brief  Disconnection event callback.
1276:Drivers/STM32F0xx_HAL_Driver/Src/stm32f0xx_hal_pcd.c ****   * @param  hpcd PCD handle
1277:Drivers/STM32F0xx_HAL_Driver/Src/stm32f0xx_hal_pcd.c ****   * @retval None
1278:Drivers/STM32F0xx_HAL_Driver/Src/stm32f0xx_hal_pcd.c ****   */
1279:Drivers/STM32F0xx_HAL_Driver/Src/stm32f0xx_hal_pcd.c **** __weak void HAL_PCD_DisconnectCallback(PCD_HandleTypeDef *hpcd)
1280:Drivers/STM32F0xx_HAL_Driver/Src/stm32f0xx_hal_pcd.c **** {
 653              		.loc 1 1280 0
 654              		.cfi_startproc
 655              		@ args = 0, pretend = 0, frame = 0
 656              		@ frame_needed = 0, uses_anonymous_args = 0
 657              		@ link register save eliminated.
 658              	.LVL41:
1281:Drivers/STM32F0xx_HAL_Driver/Src/stm32f0xx_hal_pcd.c ****   /* Prevent unused argument(s) compilation warning */
1282:Drivers/STM32F0xx_HAL_Driver/Src/stm32f0xx_hal_pcd.c ****   UNUSED(hpcd);
1283:Drivers/STM32F0xx_HAL_Driver/Src/stm32f0xx_hal_pcd.c **** 
1284:Drivers/STM32F0xx_HAL_Driver/Src/stm32f0xx_hal_pcd.c ****   /* NOTE : This function should not be modified, when the callback is needed,
1285:Drivers/STM32F0xx_HAL_Driver/Src/stm32f0xx_hal_pcd.c ****             the HAL_PCD_DisconnectCallback could be implemented in the user file
1286:Drivers/STM32F0xx_HAL_Driver/Src/stm32f0xx_hal_pcd.c ****    */
1287:Drivers/STM32F0xx_HAL_Driver/Src/stm32f0xx_hal_pcd.c **** }
 659              		.loc 1 1287 0
 660              		@ sp needed
 661 0000 7047     		bx	lr
 662              		.cfi_endproc
 663              	.LFE57:
 665 0002 C046     		.section	.text.HAL_PCD_DevConnect,"ax",%progbits
 666              		.align	2
 667              		.global	HAL_PCD_DevConnect
 668              		.code	16
 669              		.thumb_func
 671              	HAL_PCD_DevConnect:
 672              	.LFB58:
1288:Drivers/STM32F0xx_HAL_Driver/Src/stm32f0xx_hal_pcd.c **** 
1289:Drivers/STM32F0xx_HAL_Driver/Src/stm32f0xx_hal_pcd.c **** /**
1290:Drivers/STM32F0xx_HAL_Driver/Src/stm32f0xx_hal_pcd.c ****   * @}
1291:Drivers/STM32F0xx_HAL_Driver/Src/stm32f0xx_hal_pcd.c ****   */
1292:Drivers/STM32F0xx_HAL_Driver/Src/stm32f0xx_hal_pcd.c **** 
1293:Drivers/STM32F0xx_HAL_Driver/Src/stm32f0xx_hal_pcd.c **** /** @defgroup PCD_Exported_Functions_Group3 Peripheral Control functions
1294:Drivers/STM32F0xx_HAL_Driver/Src/stm32f0xx_hal_pcd.c ****  *  @brief   management functions
1295:Drivers/STM32F0xx_HAL_Driver/Src/stm32f0xx_hal_pcd.c ****  *
1296:Drivers/STM32F0xx_HAL_Driver/Src/stm32f0xx_hal_pcd.c **** @verbatim
1297:Drivers/STM32F0xx_HAL_Driver/Src/stm32f0xx_hal_pcd.c ****  ===============================================================================
1298:Drivers/STM32F0xx_HAL_Driver/Src/stm32f0xx_hal_pcd.c ****                       ##### Peripheral Control functions #####
1299:Drivers/STM32F0xx_HAL_Driver/Src/stm32f0xx_hal_pcd.c ****  ===============================================================================
1300:Drivers/STM32F0xx_HAL_Driver/Src/stm32f0xx_hal_pcd.c ****     [..]
1301:Drivers/STM32F0xx_HAL_Driver/Src/stm32f0xx_hal_pcd.c ****     This subsection provides a set of functions allowing to control the PCD data
1302:Drivers/STM32F0xx_HAL_Driver/Src/stm32f0xx_hal_pcd.c ****     transfers.
1303:Drivers/STM32F0xx_HAL_Driver/Src/stm32f0xx_hal_pcd.c **** 
1304:Drivers/STM32F0xx_HAL_Driver/Src/stm32f0xx_hal_pcd.c **** @endverbatim
1305:Drivers/STM32F0xx_HAL_Driver/Src/stm32f0xx_hal_pcd.c ****   * @{
1306:Drivers/STM32F0xx_HAL_Driver/Src/stm32f0xx_hal_pcd.c ****   */
1307:Drivers/STM32F0xx_HAL_Driver/Src/stm32f0xx_hal_pcd.c **** 
1308:Drivers/STM32F0xx_HAL_Driver/Src/stm32f0xx_hal_pcd.c **** /**
1309:Drivers/STM32F0xx_HAL_Driver/Src/stm32f0xx_hal_pcd.c ****   * @brief  Connect the USB device
1310:Drivers/STM32F0xx_HAL_Driver/Src/stm32f0xx_hal_pcd.c ****   * @param  hpcd PCD handle
1311:Drivers/STM32F0xx_HAL_Driver/Src/stm32f0xx_hal_pcd.c ****   * @retval HAL status
ARM GAS  /tmp/ccTcoz65.s 			page 36


1312:Drivers/STM32F0xx_HAL_Driver/Src/stm32f0xx_hal_pcd.c ****   */
1313:Drivers/STM32F0xx_HAL_Driver/Src/stm32f0xx_hal_pcd.c **** HAL_StatusTypeDef HAL_PCD_DevConnect(PCD_HandleTypeDef *hpcd)
1314:Drivers/STM32F0xx_HAL_Driver/Src/stm32f0xx_hal_pcd.c **** {
 673              		.loc 1 1314 0
 674              		.cfi_startproc
 675              		@ args = 0, pretend = 0, frame = 0
 676              		@ frame_needed = 0, uses_anonymous_args = 0
 677              	.LVL42:
 678 0000 70B5     		push	{r4, r5, r6, lr}
 679              	.LCFI5:
 680              		.cfi_def_cfa_offset 16
 681              		.cfi_offset 4, -16
 682              		.cfi_offset 5, -12
 683              		.cfi_offset 6, -8
 684              		.cfi_offset 14, -4
1315:Drivers/STM32F0xx_HAL_Driver/Src/stm32f0xx_hal_pcd.c ****   __HAL_LOCK(hpcd);
 685              		.loc 1 1315 0
 686 0002 8A25     		movs	r5, #138
 687 0004 AD00     		lsls	r5, r5, #2
 688 0006 435D     		ldrb	r3, [r0, r5]
1314:Drivers/STM32F0xx_HAL_Driver/Src/stm32f0xx_hal_pcd.c ****   __HAL_LOCK(hpcd);
 689              		.loc 1 1314 0
 690 0008 0400     		movs	r4, r0
 691              		.loc 1 1315 0
 692 000a 0220     		movs	r0, #2
 693              	.LVL43:
 694 000c 012B     		cmp	r3, #1
 695 000e 07D0     		beq	.L50
 696              		.loc 1 1315 0 is_stmt 0 discriminator 2
 697 0010 0123     		movs	r3, #1
1316:Drivers/STM32F0xx_HAL_Driver/Src/stm32f0xx_hal_pcd.c ****   (void)USB_DevConnect(hpcd->Instance);
 698              		.loc 1 1316 0 is_stmt 1 discriminator 2
 699 0012 2068     		ldr	r0, [r4]
1315:Drivers/STM32F0xx_HAL_Driver/Src/stm32f0xx_hal_pcd.c ****   __HAL_LOCK(hpcd);
 700              		.loc 1 1315 0 discriminator 2
 701 0014 6355     		strb	r3, [r4, r5]
 702              		.loc 1 1316 0 discriminator 2
 703 0016 FFF7FEFF 		bl	USB_DevConnect
 704              	.LVL44:
1317:Drivers/STM32F0xx_HAL_Driver/Src/stm32f0xx_hal_pcd.c ****   __HAL_UNLOCK(hpcd);
 705              		.loc 1 1317 0 discriminator 2
 706 001a 0023     		movs	r3, #0
1318:Drivers/STM32F0xx_HAL_Driver/Src/stm32f0xx_hal_pcd.c ****   return HAL_OK;
 707              		.loc 1 1318 0 discriminator 2
 708 001c 0020     		movs	r0, #0
1317:Drivers/STM32F0xx_HAL_Driver/Src/stm32f0xx_hal_pcd.c ****   __HAL_UNLOCK(hpcd);
 709              		.loc 1 1317 0 discriminator 2
 710 001e 6355     		strb	r3, [r4, r5]
 711              	.L50:
1319:Drivers/STM32F0xx_HAL_Driver/Src/stm32f0xx_hal_pcd.c **** }
 712              		.loc 1 1319 0
 713              		@ sp needed
 714              	.LVL45:
 715 0020 70BD     		pop	{r4, r5, r6, pc}
 716              		.cfi_endproc
 717              	.LFE58:
 719 0022 C046     		.section	.text.HAL_PCD_DevDisconnect,"ax",%progbits
ARM GAS  /tmp/ccTcoz65.s 			page 37


 720              		.align	2
 721              		.global	HAL_PCD_DevDisconnect
 722              		.code	16
 723              		.thumb_func
 725              	HAL_PCD_DevDisconnect:
 726              	.LFB59:
1320:Drivers/STM32F0xx_HAL_Driver/Src/stm32f0xx_hal_pcd.c **** 
1321:Drivers/STM32F0xx_HAL_Driver/Src/stm32f0xx_hal_pcd.c **** /**
1322:Drivers/STM32F0xx_HAL_Driver/Src/stm32f0xx_hal_pcd.c ****   * @brief  Disconnect the USB device.
1323:Drivers/STM32F0xx_HAL_Driver/Src/stm32f0xx_hal_pcd.c ****   * @param  hpcd PCD handle
1324:Drivers/STM32F0xx_HAL_Driver/Src/stm32f0xx_hal_pcd.c ****   * @retval HAL status
1325:Drivers/STM32F0xx_HAL_Driver/Src/stm32f0xx_hal_pcd.c ****   */
1326:Drivers/STM32F0xx_HAL_Driver/Src/stm32f0xx_hal_pcd.c **** HAL_StatusTypeDef HAL_PCD_DevDisconnect(PCD_HandleTypeDef *hpcd)
1327:Drivers/STM32F0xx_HAL_Driver/Src/stm32f0xx_hal_pcd.c **** {
 727              		.loc 1 1327 0
 728              		.cfi_startproc
 729              		@ args = 0, pretend = 0, frame = 0
 730              		@ frame_needed = 0, uses_anonymous_args = 0
 731              	.LVL46:
 732 0000 70B5     		push	{r4, r5, r6, lr}
 733              	.LCFI6:
 734              		.cfi_def_cfa_offset 16
 735              		.cfi_offset 4, -16
 736              		.cfi_offset 5, -12
 737              		.cfi_offset 6, -8
 738              		.cfi_offset 14, -4
1328:Drivers/STM32F0xx_HAL_Driver/Src/stm32f0xx_hal_pcd.c ****   __HAL_LOCK(hpcd);
 739              		.loc 1 1328 0
 740 0002 8A25     		movs	r5, #138
 741 0004 AD00     		lsls	r5, r5, #2
 742 0006 435D     		ldrb	r3, [r0, r5]
1327:Drivers/STM32F0xx_HAL_Driver/Src/stm32f0xx_hal_pcd.c ****   __HAL_LOCK(hpcd);
 743              		.loc 1 1327 0
 744 0008 0400     		movs	r4, r0
 745              		.loc 1 1328 0
 746 000a 0220     		movs	r0, #2
 747              	.LVL47:
 748 000c 012B     		cmp	r3, #1
 749 000e 07D0     		beq	.L54
 750              		.loc 1 1328 0 is_stmt 0 discriminator 2
 751 0010 0123     		movs	r3, #1
1329:Drivers/STM32F0xx_HAL_Driver/Src/stm32f0xx_hal_pcd.c ****   (void)USB_DevDisconnect(hpcd->Instance);
 752              		.loc 1 1329 0 is_stmt 1 discriminator 2
 753 0012 2068     		ldr	r0, [r4]
1328:Drivers/STM32F0xx_HAL_Driver/Src/stm32f0xx_hal_pcd.c ****   __HAL_LOCK(hpcd);
 754              		.loc 1 1328 0 discriminator 2
 755 0014 6355     		strb	r3, [r4, r5]
 756              		.loc 1 1329 0 discriminator 2
 757 0016 FFF7FEFF 		bl	USB_DevDisconnect
 758              	.LVL48:
1330:Drivers/STM32F0xx_HAL_Driver/Src/stm32f0xx_hal_pcd.c ****   __HAL_UNLOCK(hpcd);
 759              		.loc 1 1330 0 discriminator 2
 760 001a 0023     		movs	r3, #0
1331:Drivers/STM32F0xx_HAL_Driver/Src/stm32f0xx_hal_pcd.c ****   return HAL_OK;
 761              		.loc 1 1331 0 discriminator 2
 762 001c 0020     		movs	r0, #0
1330:Drivers/STM32F0xx_HAL_Driver/Src/stm32f0xx_hal_pcd.c ****   __HAL_UNLOCK(hpcd);
ARM GAS  /tmp/ccTcoz65.s 			page 38


 763              		.loc 1 1330 0 discriminator 2
 764 001e 6355     		strb	r3, [r4, r5]
 765              	.L54:
1332:Drivers/STM32F0xx_HAL_Driver/Src/stm32f0xx_hal_pcd.c **** }
 766              		.loc 1 1332 0
 767              		@ sp needed
 768              	.LVL49:
 769 0020 70BD     		pop	{r4, r5, r6, pc}
 770              		.cfi_endproc
 771              	.LFE59:
 773 0022 C046     		.section	.text.HAL_PCD_SetAddress,"ax",%progbits
 774              		.align	2
 775              		.global	HAL_PCD_SetAddress
 776              		.code	16
 777              		.thumb_func
 779              	HAL_PCD_SetAddress:
 780              	.LFB60:
1333:Drivers/STM32F0xx_HAL_Driver/Src/stm32f0xx_hal_pcd.c **** 
1334:Drivers/STM32F0xx_HAL_Driver/Src/stm32f0xx_hal_pcd.c **** /**
1335:Drivers/STM32F0xx_HAL_Driver/Src/stm32f0xx_hal_pcd.c ****   * @brief  Set the USB Device address.
1336:Drivers/STM32F0xx_HAL_Driver/Src/stm32f0xx_hal_pcd.c ****   * @param  hpcd PCD handle
1337:Drivers/STM32F0xx_HAL_Driver/Src/stm32f0xx_hal_pcd.c ****   * @param  address new device address
1338:Drivers/STM32F0xx_HAL_Driver/Src/stm32f0xx_hal_pcd.c ****   * @retval HAL status
1339:Drivers/STM32F0xx_HAL_Driver/Src/stm32f0xx_hal_pcd.c ****   */
1340:Drivers/STM32F0xx_HAL_Driver/Src/stm32f0xx_hal_pcd.c **** HAL_StatusTypeDef HAL_PCD_SetAddress(PCD_HandleTypeDef *hpcd, uint8_t address)
1341:Drivers/STM32F0xx_HAL_Driver/Src/stm32f0xx_hal_pcd.c **** {
 781              		.loc 1 1341 0
 782              		.cfi_startproc
 783              		@ args = 0, pretend = 0, frame = 0
 784              		@ frame_needed = 0, uses_anonymous_args = 0
 785              	.LVL50:
 786 0000 70B5     		push	{r4, r5, r6, lr}
 787              	.LCFI7:
 788              		.cfi_def_cfa_offset 16
 789              		.cfi_offset 4, -16
 790              		.cfi_offset 5, -12
 791              		.cfi_offset 6, -8
 792              		.cfi_offset 14, -4
1342:Drivers/STM32F0xx_HAL_Driver/Src/stm32f0xx_hal_pcd.c ****   __HAL_LOCK(hpcd);
 793              		.loc 1 1342 0
 794 0002 8A25     		movs	r5, #138
 795 0004 AD00     		lsls	r5, r5, #2
 796 0006 435D     		ldrb	r3, [r0, r5]
1341:Drivers/STM32F0xx_HAL_Driver/Src/stm32f0xx_hal_pcd.c ****   __HAL_LOCK(hpcd);
 797              		.loc 1 1341 0
 798 0008 0400     		movs	r4, r0
 799              		.loc 1 1342 0
 800 000a 0220     		movs	r0, #2
 801              	.LVL51:
 802 000c 012B     		cmp	r3, #1
 803 000e 09D0     		beq	.L58
 804              	.LVL52:
 805              	.LBB24:
 806              	.LBB25:
 807 0010 0123     		movs	r3, #1
 808 0012 6355     		strb	r3, [r4, r5]
1343:Drivers/STM32F0xx_HAL_Driver/Src/stm32f0xx_hal_pcd.c ****   hpcd->USB_Address = address;
ARM GAS  /tmp/ccTcoz65.s 			page 39


 809              		.loc 1 1343 0
 810 0014 2333     		adds	r3, r3, #35
 811 0016 E154     		strb	r1, [r4, r3]
1344:Drivers/STM32F0xx_HAL_Driver/Src/stm32f0xx_hal_pcd.c ****   (void)USB_SetDevAddress(hpcd->Instance, address);
 812              		.loc 1 1344 0
 813 0018 2068     		ldr	r0, [r4]
 814 001a FFF7FEFF 		bl	USB_SetDevAddress
 815              	.LVL53:
1345:Drivers/STM32F0xx_HAL_Driver/Src/stm32f0xx_hal_pcd.c ****   __HAL_UNLOCK(hpcd);
 816              		.loc 1 1345 0
 817 001e 0023     		movs	r3, #0
 818 0020 0020     		movs	r0, #0
 819 0022 6355     		strb	r3, [r4, r5]
 820              	.LVL54:
 821              	.L58:
 822              	.LBE25:
 823              	.LBE24:
1346:Drivers/STM32F0xx_HAL_Driver/Src/stm32f0xx_hal_pcd.c ****   return HAL_OK;
1347:Drivers/STM32F0xx_HAL_Driver/Src/stm32f0xx_hal_pcd.c **** }
 824              		.loc 1 1347 0
 825              		@ sp needed
 826              	.LVL55:
 827 0024 70BD     		pop	{r4, r5, r6, pc}
 828              		.cfi_endproc
 829              	.LFE60:
 831 0026 C046     		.section	.text.HAL_PCD_EP_Open,"ax",%progbits
 832              		.align	2
 833              		.global	HAL_PCD_EP_Open
 834              		.code	16
 835              		.thumb_func
 837              	HAL_PCD_EP_Open:
 838              	.LFB61:
1348:Drivers/STM32F0xx_HAL_Driver/Src/stm32f0xx_hal_pcd.c **** /**
1349:Drivers/STM32F0xx_HAL_Driver/Src/stm32f0xx_hal_pcd.c ****   * @brief  Open and configure an endpoint.
1350:Drivers/STM32F0xx_HAL_Driver/Src/stm32f0xx_hal_pcd.c ****   * @param  hpcd PCD handle
1351:Drivers/STM32F0xx_HAL_Driver/Src/stm32f0xx_hal_pcd.c ****   * @param  ep_addr endpoint address
1352:Drivers/STM32F0xx_HAL_Driver/Src/stm32f0xx_hal_pcd.c ****   * @param  ep_mps endpoint max packet size
1353:Drivers/STM32F0xx_HAL_Driver/Src/stm32f0xx_hal_pcd.c ****   * @param  ep_type endpoint type
1354:Drivers/STM32F0xx_HAL_Driver/Src/stm32f0xx_hal_pcd.c ****   * @retval HAL status
1355:Drivers/STM32F0xx_HAL_Driver/Src/stm32f0xx_hal_pcd.c ****   */
1356:Drivers/STM32F0xx_HAL_Driver/Src/stm32f0xx_hal_pcd.c **** HAL_StatusTypeDef HAL_PCD_EP_Open(PCD_HandleTypeDef *hpcd, uint8_t ep_addr, uint16_t ep_mps, uint8_
1357:Drivers/STM32F0xx_HAL_Driver/Src/stm32f0xx_hal_pcd.c **** {
 839              		.loc 1 1357 0
 840              		.cfi_startproc
 841              		@ args = 0, pretend = 0, frame = 0
 842              		@ frame_needed = 0, uses_anonymous_args = 0
 843              	.LVL56:
 844 0000 70B5     		push	{r4, r5, r6, lr}
 845              	.LCFI8:
 846              		.cfi_def_cfa_offset 16
 847              		.cfi_offset 4, -16
 848              		.cfi_offset 5, -12
 849              		.cfi_offset 6, -8
 850              		.cfi_offset 14, -4
 851              		.loc 1 1357 0
 852 0002 0500     		movs	r5, r0
1358:Drivers/STM32F0xx_HAL_Driver/Src/stm32f0xx_hal_pcd.c ****   HAL_StatusTypeDef  ret = HAL_OK;
ARM GAS  /tmp/ccTcoz65.s 			page 40


1359:Drivers/STM32F0xx_HAL_Driver/Src/stm32f0xx_hal_pcd.c ****   PCD_EPTypeDef *ep;
1360:Drivers/STM32F0xx_HAL_Driver/Src/stm32f0xx_hal_pcd.c **** 
1361:Drivers/STM32F0xx_HAL_Driver/Src/stm32f0xx_hal_pcd.c ****   if ((ep_addr & 0x80U) == 0x80U)
 853              		.loc 1 1361 0
 854 0004 48B2     		sxtb	r0, r1
 855              	.LVL57:
 856 0006 0028     		cmp	r0, #0
 857 0008 26DB     		blt	.L72
 858 000a 0720     		movs	r0, #7
 859 000c 0840     		ands	r0, r1
1362:Drivers/STM32F0xx_HAL_Driver/Src/stm32f0xx_hal_pcd.c ****   {
1363:Drivers/STM32F0xx_HAL_Driver/Src/stm32f0xx_hal_pcd.c ****     ep = &hpcd->IN_ep[ep_addr & EP_ADDR_MSK];
1364:Drivers/STM32F0xx_HAL_Driver/Src/stm32f0xx_hal_pcd.c ****     ep->is_in = 1U;
1365:Drivers/STM32F0xx_HAL_Driver/Src/stm32f0xx_hal_pcd.c ****   }
1366:Drivers/STM32F0xx_HAL_Driver/Src/stm32f0xx_hal_pcd.c ****   else
1367:Drivers/STM32F0xx_HAL_Driver/Src/stm32f0xx_hal_pcd.c ****   {
1368:Drivers/STM32F0xx_HAL_Driver/Src/stm32f0xx_hal_pcd.c ****     ep = &hpcd->OUT_ep[ep_addr & EP_ADDR_MSK];
 860              		.loc 1 1368 0
 861 000e 4401     		lsls	r4, r0, #5
 862 0010 2100     		movs	r1, r4
 863              	.LVL58:
1369:Drivers/STM32F0xx_HAL_Driver/Src/stm32f0xx_hal_pcd.c ****     ep->is_in = 0U;
 864              		.loc 1 1369 0
 865 0012 0026     		movs	r6, #0
 866 0014 2C19     		adds	r4, r5, r4
1368:Drivers/STM32F0xx_HAL_Driver/Src/stm32f0xx_hal_pcd.c ****     ep->is_in = 0U;
 867              		.loc 1 1368 0
 868 0016 2931     		adds	r1, r1, #41
 869              		.loc 1 1369 0
 870 0018 2A34     		adds	r4, r4, #42
1368:Drivers/STM32F0xx_HAL_Driver/Src/stm32f0xx_hal_pcd.c ****     ep->is_in = 0U;
 871              		.loc 1 1368 0
 872 001a FF31     		adds	r1, r1, #255
 873              		.loc 1 1369 0
 874 001c FF34     		adds	r4, r4, #255
1368:Drivers/STM32F0xx_HAL_Driver/Src/stm32f0xx_hal_pcd.c ****     ep->is_in = 0U;
 875              		.loc 1 1368 0
 876 001e 6918     		adds	r1, r5, r1
 877              	.LVL59:
 878              		.loc 1 1369 0
 879 0020 2670     		strb	r6, [r4]
 880              	.L63:
1370:Drivers/STM32F0xx_HAL_Driver/Src/stm32f0xx_hal_pcd.c ****   }
1371:Drivers/STM32F0xx_HAL_Driver/Src/stm32f0xx_hal_pcd.c **** 
1372:Drivers/STM32F0xx_HAL_Driver/Src/stm32f0xx_hal_pcd.c ****   ep->num = ep_addr & EP_ADDR_MSK;
1373:Drivers/STM32F0xx_HAL_Driver/Src/stm32f0xx_hal_pcd.c ****   ep->maxpacket = ep_mps;
 881              		.loc 1 1373 0
 882 0022 0A61     		str	r2, [r1, #16]
1374:Drivers/STM32F0xx_HAL_Driver/Src/stm32f0xx_hal_pcd.c ****   ep->type = ep_type;
1375:Drivers/STM32F0xx_HAL_Driver/Src/stm32f0xx_hal_pcd.c **** 
1376:Drivers/STM32F0xx_HAL_Driver/Src/stm32f0xx_hal_pcd.c ****   if (ep->is_in != 0U)
 883              		.loc 1 1376 0
 884 0024 4A78     		ldrb	r2, [r1, #1]
 885              	.LVL60:
1372:Drivers/STM32F0xx_HAL_Driver/Src/stm32f0xx_hal_pcd.c ****   ep->maxpacket = ep_mps;
 886              		.loc 1 1372 0
 887 0026 0870     		strb	r0, [r1]
ARM GAS  /tmp/ccTcoz65.s 			page 41


1374:Drivers/STM32F0xx_HAL_Driver/Src/stm32f0xx_hal_pcd.c ****   ep->type = ep_type;
 888              		.loc 1 1374 0
 889 0028 CB70     		strb	r3, [r1, #3]
 890              		.loc 1 1376 0
 891 002a 002A     		cmp	r2, #0
 892 002c 00D0     		beq	.L64
1377:Drivers/STM32F0xx_HAL_Driver/Src/stm32f0xx_hal_pcd.c ****   {
1378:Drivers/STM32F0xx_HAL_Driver/Src/stm32f0xx_hal_pcd.c ****     /* Assign a Tx FIFO */
1379:Drivers/STM32F0xx_HAL_Driver/Src/stm32f0xx_hal_pcd.c ****     ep->tx_fifo_num = ep->num;
 893              		.loc 1 1379 0
 894 002e C881     		strh	r0, [r1, #14]
 895              	.L64:
1380:Drivers/STM32F0xx_HAL_Driver/Src/stm32f0xx_hal_pcd.c ****   }
1381:Drivers/STM32F0xx_HAL_Driver/Src/stm32f0xx_hal_pcd.c ****   /* Set initial data PID. */
1382:Drivers/STM32F0xx_HAL_Driver/Src/stm32f0xx_hal_pcd.c ****   if (ep_type == EP_TYPE_BULK)
 896              		.loc 1 1382 0
 897 0030 022B     		cmp	r3, #2
 898 0032 0ED0     		beq	.L73
 899              	.LVL61:
 900              	.L65:
1383:Drivers/STM32F0xx_HAL_Driver/Src/stm32f0xx_hal_pcd.c ****   {
1384:Drivers/STM32F0xx_HAL_Driver/Src/stm32f0xx_hal_pcd.c ****     ep->data_pid_start = 0U;
1385:Drivers/STM32F0xx_HAL_Driver/Src/stm32f0xx_hal_pcd.c ****   }
1386:Drivers/STM32F0xx_HAL_Driver/Src/stm32f0xx_hal_pcd.c **** 
1387:Drivers/STM32F0xx_HAL_Driver/Src/stm32f0xx_hal_pcd.c ****   __HAL_LOCK(hpcd);
 901              		.loc 1 1387 0
 902 0034 8A24     		movs	r4, #138
 903 0036 A400     		lsls	r4, r4, #2
 904 0038 2B5D     		ldrb	r3, [r5, r4]
 905 003a 0220     		movs	r0, #2
 906 003c 012B     		cmp	r3, #1
 907 003e 07D0     		beq	.L66
 908              		.loc 1 1387 0 is_stmt 0 discriminator 2
 909 0040 0123     		movs	r3, #1
1388:Drivers/STM32F0xx_HAL_Driver/Src/stm32f0xx_hal_pcd.c ****   (void)USB_ActivateEndpoint(hpcd->Instance, ep);
 910              		.loc 1 1388 0 is_stmt 1 discriminator 2
 911 0042 2868     		ldr	r0, [r5]
1387:Drivers/STM32F0xx_HAL_Driver/Src/stm32f0xx_hal_pcd.c ****   (void)USB_ActivateEndpoint(hpcd->Instance, ep);
 912              		.loc 1 1387 0 discriminator 2
 913 0044 2B55     		strb	r3, [r5, r4]
 914              	.LVL62:
 915              		.loc 1 1388 0 discriminator 2
 916 0046 FFF7FEFF 		bl	USB_ActivateEndpoint
 917              	.LVL63:
1389:Drivers/STM32F0xx_HAL_Driver/Src/stm32f0xx_hal_pcd.c ****   __HAL_UNLOCK(hpcd);
 918              		.loc 1 1389 0 discriminator 2
 919 004a 0023     		movs	r3, #0
1390:Drivers/STM32F0xx_HAL_Driver/Src/stm32f0xx_hal_pcd.c **** 
1391:Drivers/STM32F0xx_HAL_Driver/Src/stm32f0xx_hal_pcd.c ****   return ret;
 920              		.loc 1 1391 0 discriminator 2
 921 004c 0020     		movs	r0, #0
1389:Drivers/STM32F0xx_HAL_Driver/Src/stm32f0xx_hal_pcd.c ****   __HAL_UNLOCK(hpcd);
 922              		.loc 1 1389 0 discriminator 2
 923 004e 2B55     		strb	r3, [r5, r4]
 924              	.L66:
1392:Drivers/STM32F0xx_HAL_Driver/Src/stm32f0xx_hal_pcd.c **** }
 925              		.loc 1 1392 0
ARM GAS  /tmp/ccTcoz65.s 			page 42


 926              		@ sp needed
 927              	.LVL64:
 928 0050 70BD     		pop	{r4, r5, r6, pc}
 929              	.LVL65:
 930              	.L73:
1384:Drivers/STM32F0xx_HAL_Driver/Src/stm32f0xx_hal_pcd.c ****   }
 931              		.loc 1 1384 0
 932 0052 0023     		movs	r3, #0
 933              	.LVL66:
 934 0054 0B71     		strb	r3, [r1, #4]
 935 0056 EDE7     		b	.L65
 936              	.LVL67:
 937              	.L72:
 938 0058 0720     		movs	r0, #7
 939 005a 0840     		ands	r0, r1
1363:Drivers/STM32F0xx_HAL_Driver/Src/stm32f0xx_hal_pcd.c ****     ep->is_in = 1U;
 940              		.loc 1 1363 0
 941 005c 4401     		lsls	r4, r0, #5
 942 005e 2100     		movs	r1, r4
 943              	.LVL68:
1364:Drivers/STM32F0xx_HAL_Driver/Src/stm32f0xx_hal_pcd.c ****   }
 944              		.loc 1 1364 0
 945 0060 0126     		movs	r6, #1
 946 0062 2C19     		adds	r4, r5, r4
1363:Drivers/STM32F0xx_HAL_Driver/Src/stm32f0xx_hal_pcd.c ****     ep->is_in = 1U;
 947              		.loc 1 1363 0
 948 0064 2831     		adds	r1, r1, #40
1364:Drivers/STM32F0xx_HAL_Driver/Src/stm32f0xx_hal_pcd.c ****   }
 949              		.loc 1 1364 0
 950 0066 2934     		adds	r4, r4, #41
1363:Drivers/STM32F0xx_HAL_Driver/Src/stm32f0xx_hal_pcd.c ****     ep->is_in = 1U;
 951              		.loc 1 1363 0
 952 0068 6918     		adds	r1, r5, r1
 953              	.LVL69:
1364:Drivers/STM32F0xx_HAL_Driver/Src/stm32f0xx_hal_pcd.c ****   }
 954              		.loc 1 1364 0
 955 006a 2670     		strb	r6, [r4]
 956 006c D9E7     		b	.L63
 957              		.cfi_endproc
 958              	.LFE61:
 960 006e C046     		.section	.text.HAL_PCD_EP_Close,"ax",%progbits
 961              		.align	2
 962              		.global	HAL_PCD_EP_Close
 963              		.code	16
 964              		.thumb_func
 966              	HAL_PCD_EP_Close:
 967              	.LFB62:
1393:Drivers/STM32F0xx_HAL_Driver/Src/stm32f0xx_hal_pcd.c **** 
1394:Drivers/STM32F0xx_HAL_Driver/Src/stm32f0xx_hal_pcd.c **** /**
1395:Drivers/STM32F0xx_HAL_Driver/Src/stm32f0xx_hal_pcd.c ****   * @brief  Deactivate an endpoint.
1396:Drivers/STM32F0xx_HAL_Driver/Src/stm32f0xx_hal_pcd.c ****   * @param  hpcd PCD handle
1397:Drivers/STM32F0xx_HAL_Driver/Src/stm32f0xx_hal_pcd.c ****   * @param  ep_addr endpoint address
1398:Drivers/STM32F0xx_HAL_Driver/Src/stm32f0xx_hal_pcd.c ****   * @retval HAL status
1399:Drivers/STM32F0xx_HAL_Driver/Src/stm32f0xx_hal_pcd.c ****   */
1400:Drivers/STM32F0xx_HAL_Driver/Src/stm32f0xx_hal_pcd.c **** HAL_StatusTypeDef HAL_PCD_EP_Close(PCD_HandleTypeDef *hpcd, uint8_t ep_addr)
1401:Drivers/STM32F0xx_HAL_Driver/Src/stm32f0xx_hal_pcd.c **** {
 968              		.loc 1 1401 0
ARM GAS  /tmp/ccTcoz65.s 			page 43


 969              		.cfi_startproc
 970              		@ args = 0, pretend = 0, frame = 0
 971              		@ frame_needed = 0, uses_anonymous_args = 0
 972              	.LVL70:
1402:Drivers/STM32F0xx_HAL_Driver/Src/stm32f0xx_hal_pcd.c ****   PCD_EPTypeDef *ep;
1403:Drivers/STM32F0xx_HAL_Driver/Src/stm32f0xx_hal_pcd.c **** 
1404:Drivers/STM32F0xx_HAL_Driver/Src/stm32f0xx_hal_pcd.c ****   if ((ep_addr & 0x80U) == 0x80U)
 973              		.loc 1 1404 0
 974 0000 4BB2     		sxtb	r3, r1
1401:Drivers/STM32F0xx_HAL_Driver/Src/stm32f0xx_hal_pcd.c ****   PCD_EPTypeDef *ep;
 975              		.loc 1 1401 0
 976 0002 70B5     		push	{r4, r5, r6, lr}
 977              	.LCFI9:
 978              		.cfi_def_cfa_offset 16
 979              		.cfi_offset 4, -16
 980              		.cfi_offset 5, -12
 981              		.cfi_offset 6, -8
 982              		.cfi_offset 14, -4
1401:Drivers/STM32F0xx_HAL_Driver/Src/stm32f0xx_hal_pcd.c ****   PCD_EPTypeDef *ep;
 983              		.loc 1 1401 0
 984 0004 0400     		movs	r4, r0
 985              		.loc 1 1404 0
 986 0006 002B     		cmp	r3, #0
 987 0008 1BDB     		blt	.L80
 988 000a 0723     		movs	r3, #7
 989 000c 0B40     		ands	r3, r1
1405:Drivers/STM32F0xx_HAL_Driver/Src/stm32f0xx_hal_pcd.c ****   {
1406:Drivers/STM32F0xx_HAL_Driver/Src/stm32f0xx_hal_pcd.c ****     ep = &hpcd->IN_ep[ep_addr & EP_ADDR_MSK];
1407:Drivers/STM32F0xx_HAL_Driver/Src/stm32f0xx_hal_pcd.c ****     ep->is_in = 1U;
1408:Drivers/STM32F0xx_HAL_Driver/Src/stm32f0xx_hal_pcd.c ****   }
1409:Drivers/STM32F0xx_HAL_Driver/Src/stm32f0xx_hal_pcd.c ****   else
1410:Drivers/STM32F0xx_HAL_Driver/Src/stm32f0xx_hal_pcd.c ****   {
1411:Drivers/STM32F0xx_HAL_Driver/Src/stm32f0xx_hal_pcd.c ****     ep = &hpcd->OUT_ep[ep_addr & EP_ADDR_MSK];
 990              		.loc 1 1411 0
 991 000e 5A01     		lsls	r2, r3, #5
 992 0010 1100     		movs	r1, r2
 993              	.LVL71:
 994 0012 2931     		adds	r1, r1, #41
 995 0014 FF31     		adds	r1, r1, #255
1412:Drivers/STM32F0xx_HAL_Driver/Src/stm32f0xx_hal_pcd.c ****     ep->is_in = 0U;
 996              		.loc 1 1412 0
 997 0016 8218     		adds	r2, r0, r2
1411:Drivers/STM32F0xx_HAL_Driver/Src/stm32f0xx_hal_pcd.c ****     ep->is_in = 0U;
 998              		.loc 1 1411 0
 999 0018 4118     		adds	r1, r0, r1
 1000              	.LVL72:
 1001              		.loc 1 1412 0
 1002 001a 0020     		movs	r0, #0
 1003              	.LVL73:
 1004 001c 2A32     		adds	r2, r2, #42
 1005 001e FF32     		adds	r2, r2, #255
 1006 0020 1070     		strb	r0, [r2]
 1007              	.L76:
1413:Drivers/STM32F0xx_HAL_Driver/Src/stm32f0xx_hal_pcd.c ****   }
1414:Drivers/STM32F0xx_HAL_Driver/Src/stm32f0xx_hal_pcd.c ****   ep->num   = ep_addr & EP_ADDR_MSK;
1415:Drivers/STM32F0xx_HAL_Driver/Src/stm32f0xx_hal_pcd.c **** 
1416:Drivers/STM32F0xx_HAL_Driver/Src/stm32f0xx_hal_pcd.c ****   __HAL_LOCK(hpcd);
ARM GAS  /tmp/ccTcoz65.s 			page 44


 1008              		.loc 1 1416 0
 1009 0022 8A25     		movs	r5, #138
1414:Drivers/STM32F0xx_HAL_Driver/Src/stm32f0xx_hal_pcd.c **** 
 1010              		.loc 1 1414 0
 1011 0024 0B70     		strb	r3, [r1]
 1012              		.loc 1 1416 0
 1013 0026 AD00     		lsls	r5, r5, #2
 1014 0028 635D     		ldrb	r3, [r4, r5]
 1015 002a 0220     		movs	r0, #2
 1016 002c 012B     		cmp	r3, #1
 1017 002e 07D0     		beq	.L77
 1018              		.loc 1 1416 0 is_stmt 0 discriminator 2
 1019 0030 0123     		movs	r3, #1
1417:Drivers/STM32F0xx_HAL_Driver/Src/stm32f0xx_hal_pcd.c ****   (void)USB_DeactivateEndpoint(hpcd->Instance, ep);
 1020              		.loc 1 1417 0 is_stmt 1 discriminator 2
 1021 0032 2068     		ldr	r0, [r4]
1416:Drivers/STM32F0xx_HAL_Driver/Src/stm32f0xx_hal_pcd.c ****   (void)USB_DeactivateEndpoint(hpcd->Instance, ep);
 1022              		.loc 1 1416 0 discriminator 2
 1023 0034 6355     		strb	r3, [r4, r5]
 1024              		.loc 1 1417 0 discriminator 2
 1025 0036 FFF7FEFF 		bl	USB_DeactivateEndpoint
 1026              	.LVL74:
1418:Drivers/STM32F0xx_HAL_Driver/Src/stm32f0xx_hal_pcd.c ****   __HAL_UNLOCK(hpcd);
 1027              		.loc 1 1418 0 discriminator 2
 1028 003a 0023     		movs	r3, #0
1419:Drivers/STM32F0xx_HAL_Driver/Src/stm32f0xx_hal_pcd.c ****   return HAL_OK;
 1029              		.loc 1 1419 0 discriminator 2
 1030 003c 0020     		movs	r0, #0
1418:Drivers/STM32F0xx_HAL_Driver/Src/stm32f0xx_hal_pcd.c ****   __HAL_UNLOCK(hpcd);
 1031              		.loc 1 1418 0 discriminator 2
 1032 003e 6355     		strb	r3, [r4, r5]
 1033              	.L77:
1420:Drivers/STM32F0xx_HAL_Driver/Src/stm32f0xx_hal_pcd.c **** }
 1034              		.loc 1 1420 0
 1035              		@ sp needed
 1036              	.LVL75:
 1037 0040 70BD     		pop	{r4, r5, r6, pc}
 1038              	.LVL76:
 1039              	.L80:
 1040 0042 0723     		movs	r3, #7
 1041 0044 0B40     		ands	r3, r1
1406:Drivers/STM32F0xx_HAL_Driver/Src/stm32f0xx_hal_pcd.c ****     ep->is_in = 1U;
 1042              		.loc 1 1406 0
 1043 0046 5A01     		lsls	r2, r3, #5
 1044 0048 1100     		movs	r1, r2
 1045              	.LVL77:
 1046 004a 2831     		adds	r1, r1, #40
1407:Drivers/STM32F0xx_HAL_Driver/Src/stm32f0xx_hal_pcd.c ****   }
 1047              		.loc 1 1407 0
 1048 004c 8218     		adds	r2, r0, r2
1406:Drivers/STM32F0xx_HAL_Driver/Src/stm32f0xx_hal_pcd.c ****     ep->is_in = 1U;
 1049              		.loc 1 1406 0
 1050 004e 4118     		adds	r1, r0, r1
 1051              	.LVL78:
1407:Drivers/STM32F0xx_HAL_Driver/Src/stm32f0xx_hal_pcd.c ****   }
 1052              		.loc 1 1407 0
 1053 0050 0120     		movs	r0, #1
ARM GAS  /tmp/ccTcoz65.s 			page 45


 1054              	.LVL79:
 1055 0052 2932     		adds	r2, r2, #41
 1056 0054 1070     		strb	r0, [r2]
 1057 0056 E4E7     		b	.L76
 1058              		.cfi_endproc
 1059              	.LFE62:
 1061              		.section	.text.HAL_PCD_EP_Receive,"ax",%progbits
 1062              		.align	2
 1063              		.global	HAL_PCD_EP_Receive
 1064              		.code	16
 1065              		.thumb_func
 1067              	HAL_PCD_EP_Receive:
 1068              	.LFB63:
1421:Drivers/STM32F0xx_HAL_Driver/Src/stm32f0xx_hal_pcd.c **** 
1422:Drivers/STM32F0xx_HAL_Driver/Src/stm32f0xx_hal_pcd.c **** 
1423:Drivers/STM32F0xx_HAL_Driver/Src/stm32f0xx_hal_pcd.c **** /**
1424:Drivers/STM32F0xx_HAL_Driver/Src/stm32f0xx_hal_pcd.c ****   * @brief  Receive an amount of data.
1425:Drivers/STM32F0xx_HAL_Driver/Src/stm32f0xx_hal_pcd.c ****   * @param  hpcd PCD handle
1426:Drivers/STM32F0xx_HAL_Driver/Src/stm32f0xx_hal_pcd.c ****   * @param  ep_addr endpoint address
1427:Drivers/STM32F0xx_HAL_Driver/Src/stm32f0xx_hal_pcd.c ****   * @param  pBuf pointer to the reception buffer
1428:Drivers/STM32F0xx_HAL_Driver/Src/stm32f0xx_hal_pcd.c ****   * @param  len amount of data to be received
1429:Drivers/STM32F0xx_HAL_Driver/Src/stm32f0xx_hal_pcd.c ****   * @retval HAL status
1430:Drivers/STM32F0xx_HAL_Driver/Src/stm32f0xx_hal_pcd.c ****   */
1431:Drivers/STM32F0xx_HAL_Driver/Src/stm32f0xx_hal_pcd.c **** HAL_StatusTypeDef HAL_PCD_EP_Receive(PCD_HandleTypeDef *hpcd, uint8_t ep_addr, uint8_t *pBuf, uint3
1432:Drivers/STM32F0xx_HAL_Driver/Src/stm32f0xx_hal_pcd.c **** {
 1069              		.loc 1 1432 0
 1070              		.cfi_startproc
 1071              		@ args = 0, pretend = 0, frame = 0
 1072              		@ frame_needed = 0, uses_anonymous_args = 0
 1073              	.LVL80:
 1074 0000 70B5     		push	{r4, r5, r6, lr}
 1075              	.LCFI10:
 1076              		.cfi_def_cfa_offset 16
 1077              		.cfi_offset 4, -16
 1078              		.cfi_offset 5, -12
 1079              		.cfi_offset 6, -8
 1080              		.cfi_offset 14, -4
 1081 0002 0724     		movs	r4, #7
 1082 0004 2140     		ands	r1, r4
 1083              	.LVL81:
1433:Drivers/STM32F0xx_HAL_Driver/Src/stm32f0xx_hal_pcd.c ****   PCD_EPTypeDef *ep;
1434:Drivers/STM32F0xx_HAL_Driver/Src/stm32f0xx_hal_pcd.c **** 
1435:Drivers/STM32F0xx_HAL_Driver/Src/stm32f0xx_hal_pcd.c ****   ep = &hpcd->OUT_ep[ep_addr & EP_ADDR_MSK];
1436:Drivers/STM32F0xx_HAL_Driver/Src/stm32f0xx_hal_pcd.c **** 
1437:Drivers/STM32F0xx_HAL_Driver/Src/stm32f0xx_hal_pcd.c ****   /*setup and start the Xfer */
1438:Drivers/STM32F0xx_HAL_Driver/Src/stm32f0xx_hal_pcd.c ****   ep->xfer_buff = pBuf;
 1084              		.loc 1 1438 0
 1085 0006 4D01     		lsls	r5, r1, #5
 1086 0008 4419     		adds	r4, r0, r5
 1087 000a 2600     		movs	r6, r4
 1088 000c 3D36     		adds	r6, r6, #61
 1089 000e FF36     		adds	r6, r6, #255
 1090 0010 3260     		str	r2, [r6]
1439:Drivers/STM32F0xx_HAL_Driver/Src/stm32f0xx_hal_pcd.c ****   ep->xfer_len = len;
 1091              		.loc 1 1439 0
 1092 0012 A022     		movs	r2, #160
 1093              	.LVL82:
ARM GAS  /tmp/ccTcoz65.s 			page 46


 1094 0014 5200     		lsls	r2, r2, #1
 1095 0016 A350     		str	r3, [r4, r2]
 1096              	.LVL83:
1440:Drivers/STM32F0xx_HAL_Driver/Src/stm32f0xx_hal_pcd.c ****   ep->xfer_count = 0U;
 1097              		.loc 1 1440 0
 1098 0018 0023     		movs	r3, #0
 1099              	.LVL84:
 1100 001a 0432     		adds	r2, r2, #4
 1101              	.LVL85:
 1102 001c A350     		str	r3, [r4, r2]
1441:Drivers/STM32F0xx_HAL_Driver/Src/stm32f0xx_hal_pcd.c ****   ep->is_in = 0U;
 1103              		.loc 1 1441 0
 1104 001e 2200     		movs	r2, r4
 1105              	.LVL86:
1442:Drivers/STM32F0xx_HAL_Driver/Src/stm32f0xx_hal_pcd.c ****   ep->num = ep_addr & EP_ADDR_MSK;
 1106              		.loc 1 1442 0
 1107 0020 2934     		adds	r4, r4, #41
 1108              	.LVL87:
1441:Drivers/STM32F0xx_HAL_Driver/Src/stm32f0xx_hal_pcd.c ****   ep->is_in = 0U;
 1109              		.loc 1 1441 0
 1110 0022 2A32     		adds	r2, r2, #42
 1111              	.LVL88:
 1112 0024 FF32     		adds	r2, r2, #255
 1113              	.LVL89:
 1114              		.loc 1 1442 0
 1115 0026 FF34     		adds	r4, r4, #255
1441:Drivers/STM32F0xx_HAL_Driver/Src/stm32f0xx_hal_pcd.c ****   ep->is_in = 0U;
 1116              		.loc 1 1441 0
 1117 0028 1370     		strb	r3, [r2]
 1118              	.LVL90:
 1119              		.loc 1 1442 0
 1120 002a 2170     		strb	r1, [r4]
1435:Drivers/STM32F0xx_HAL_Driver/Src/stm32f0xx_hal_pcd.c **** 
 1121              		.loc 1 1435 0
 1122 002c 2900     		movs	r1, r5
 1123              	.LVL91:
 1124 002e 2931     		adds	r1, r1, #41
 1125 0030 FF31     		adds	r1, r1, #255
 1126 0032 4118     		adds	r1, r0, r1
1443:Drivers/STM32F0xx_HAL_Driver/Src/stm32f0xx_hal_pcd.c **** 
1444:Drivers/STM32F0xx_HAL_Driver/Src/stm32f0xx_hal_pcd.c ****   if ((ep_addr & EP_ADDR_MSK) == 0U)
1445:Drivers/STM32F0xx_HAL_Driver/Src/stm32f0xx_hal_pcd.c ****   {
1446:Drivers/STM32F0xx_HAL_Driver/Src/stm32f0xx_hal_pcd.c ****     (void)USB_EP0StartXfer(hpcd->Instance, ep);
1447:Drivers/STM32F0xx_HAL_Driver/Src/stm32f0xx_hal_pcd.c ****   }
1448:Drivers/STM32F0xx_HAL_Driver/Src/stm32f0xx_hal_pcd.c ****   else
1449:Drivers/STM32F0xx_HAL_Driver/Src/stm32f0xx_hal_pcd.c ****   {
1450:Drivers/STM32F0xx_HAL_Driver/Src/stm32f0xx_hal_pcd.c ****     (void)USB_EPStartXfer(hpcd->Instance, ep);
 1127              		.loc 1 1450 0
 1128 0034 0068     		ldr	r0, [r0]
 1129              	.LVL92:
 1130 0036 FFF7FEFF 		bl	USB_EPStartXfer
 1131              	.LVL93:
1451:Drivers/STM32F0xx_HAL_Driver/Src/stm32f0xx_hal_pcd.c ****   }
1452:Drivers/STM32F0xx_HAL_Driver/Src/stm32f0xx_hal_pcd.c **** 
1453:Drivers/STM32F0xx_HAL_Driver/Src/stm32f0xx_hal_pcd.c ****   return HAL_OK;
1454:Drivers/STM32F0xx_HAL_Driver/Src/stm32f0xx_hal_pcd.c **** }
 1132              		.loc 1 1454 0
ARM GAS  /tmp/ccTcoz65.s 			page 47


 1133              		@ sp needed
 1134 003a 0020     		movs	r0, #0
 1135 003c 70BD     		pop	{r4, r5, r6, pc}
 1136              		.cfi_endproc
 1137              	.LFE63:
 1139 003e C046     		.section	.text.HAL_PCD_EP_GetRxCount,"ax",%progbits
 1140              		.align	2
 1141              		.global	HAL_PCD_EP_GetRxCount
 1142              		.code	16
 1143              		.thumb_func
 1145              	HAL_PCD_EP_GetRxCount:
 1146              	.LFB64:
1455:Drivers/STM32F0xx_HAL_Driver/Src/stm32f0xx_hal_pcd.c **** 
1456:Drivers/STM32F0xx_HAL_Driver/Src/stm32f0xx_hal_pcd.c **** /**
1457:Drivers/STM32F0xx_HAL_Driver/Src/stm32f0xx_hal_pcd.c ****   * @brief  Get Received Data Size
1458:Drivers/STM32F0xx_HAL_Driver/Src/stm32f0xx_hal_pcd.c ****   * @param  hpcd PCD handle
1459:Drivers/STM32F0xx_HAL_Driver/Src/stm32f0xx_hal_pcd.c ****   * @param  ep_addr endpoint address
1460:Drivers/STM32F0xx_HAL_Driver/Src/stm32f0xx_hal_pcd.c ****   * @retval Data Size
1461:Drivers/STM32F0xx_HAL_Driver/Src/stm32f0xx_hal_pcd.c ****   */
1462:Drivers/STM32F0xx_HAL_Driver/Src/stm32f0xx_hal_pcd.c **** uint32_t HAL_PCD_EP_GetRxCount(PCD_HandleTypeDef *hpcd, uint8_t ep_addr)
1463:Drivers/STM32F0xx_HAL_Driver/Src/stm32f0xx_hal_pcd.c **** {
 1147              		.loc 1 1463 0
 1148              		.cfi_startproc
 1149              		@ args = 0, pretend = 0, frame = 0
 1150              		@ frame_needed = 0, uses_anonymous_args = 0
 1151              		@ link register save eliminated.
 1152              	.LVL94:
1464:Drivers/STM32F0xx_HAL_Driver/Src/stm32f0xx_hal_pcd.c ****   return hpcd->OUT_ep[ep_addr & EP_ADDR_MSK].xfer_count;
 1153              		.loc 1 1464 0
 1154 0000 0723     		movs	r3, #7
 1155 0002 1940     		ands	r1, r3
 1156              	.LVL95:
 1157 0004 0A31     		adds	r1, r1, #10
 1158 0006 4901     		lsls	r1, r1, #5
 1159 0008 4018     		adds	r0, r0, r1
 1160              	.LVL96:
 1161 000a 4068     		ldr	r0, [r0, #4]
1465:Drivers/STM32F0xx_HAL_Driver/Src/stm32f0xx_hal_pcd.c **** }
 1162              		.loc 1 1465 0
 1163              		@ sp needed
 1164 000c 7047     		bx	lr
 1165              		.cfi_endproc
 1166              	.LFE64:
 1168 000e C046     		.section	.text.HAL_PCD_EP_Transmit,"ax",%progbits
 1169              		.align	2
 1170              		.global	HAL_PCD_EP_Transmit
 1171              		.code	16
 1172              		.thumb_func
 1174              	HAL_PCD_EP_Transmit:
 1175              	.LFB65:
1466:Drivers/STM32F0xx_HAL_Driver/Src/stm32f0xx_hal_pcd.c **** /**
1467:Drivers/STM32F0xx_HAL_Driver/Src/stm32f0xx_hal_pcd.c ****   * @brief  Send an amount of data
1468:Drivers/STM32F0xx_HAL_Driver/Src/stm32f0xx_hal_pcd.c ****   * @param  hpcd PCD handle
1469:Drivers/STM32F0xx_HAL_Driver/Src/stm32f0xx_hal_pcd.c ****   * @param  ep_addr endpoint address
1470:Drivers/STM32F0xx_HAL_Driver/Src/stm32f0xx_hal_pcd.c ****   * @param  pBuf pointer to the transmission buffer
1471:Drivers/STM32F0xx_HAL_Driver/Src/stm32f0xx_hal_pcd.c ****   * @param  len amount of data to be sent
1472:Drivers/STM32F0xx_HAL_Driver/Src/stm32f0xx_hal_pcd.c ****   * @retval HAL status
ARM GAS  /tmp/ccTcoz65.s 			page 48


1473:Drivers/STM32F0xx_HAL_Driver/Src/stm32f0xx_hal_pcd.c ****   */
1474:Drivers/STM32F0xx_HAL_Driver/Src/stm32f0xx_hal_pcd.c **** HAL_StatusTypeDef HAL_PCD_EP_Transmit(PCD_HandleTypeDef *hpcd, uint8_t ep_addr, uint8_t *pBuf, uint
1475:Drivers/STM32F0xx_HAL_Driver/Src/stm32f0xx_hal_pcd.c **** {
 1176              		.loc 1 1475 0
 1177              		.cfi_startproc
 1178              		@ args = 0, pretend = 0, frame = 0
 1179              		@ frame_needed = 0, uses_anonymous_args = 0
 1180              	.LVL97:
 1181 0000 70B5     		push	{r4, r5, r6, lr}
 1182              	.LCFI11:
 1183              		.cfi_def_cfa_offset 16
 1184              		.cfi_offset 4, -16
 1185              		.cfi_offset 5, -12
 1186              		.cfi_offset 6, -8
 1187              		.cfi_offset 14, -4
 1188 0002 0724     		movs	r4, #7
 1189 0004 2140     		ands	r1, r4
 1190              	.LVL98:
1476:Drivers/STM32F0xx_HAL_Driver/Src/stm32f0xx_hal_pcd.c ****   PCD_EPTypeDef *ep;
1477:Drivers/STM32F0xx_HAL_Driver/Src/stm32f0xx_hal_pcd.c **** 
1478:Drivers/STM32F0xx_HAL_Driver/Src/stm32f0xx_hal_pcd.c ****   ep = &hpcd->IN_ep[ep_addr & EP_ADDR_MSK];
1479:Drivers/STM32F0xx_HAL_Driver/Src/stm32f0xx_hal_pcd.c **** 
1480:Drivers/STM32F0xx_HAL_Driver/Src/stm32f0xx_hal_pcd.c ****   /*setup and start the Xfer */
1481:Drivers/STM32F0xx_HAL_Driver/Src/stm32f0xx_hal_pcd.c ****   ep->xfer_buff = pBuf;
 1191              		.loc 1 1481 0
 1192 0006 4D01     		lsls	r5, r1, #5
 1193 0008 4419     		adds	r4, r0, r5
1482:Drivers/STM32F0xx_HAL_Driver/Src/stm32f0xx_hal_pcd.c ****   ep->xfer_len = len;
 1194              		.loc 1 1482 0
 1195 000a 2364     		str	r3, [r4, #64]
1483:Drivers/STM32F0xx_HAL_Driver/Src/stm32f0xx_hal_pcd.c ****   ep->xfer_count = 0U;
 1196              		.loc 1 1483 0
 1197 000c 0023     		movs	r3, #0
 1198              	.LVL99:
 1199 000e 6364     		str	r3, [r4, #68]
1484:Drivers/STM32F0xx_HAL_Driver/Src/stm32f0xx_hal_pcd.c ****   ep->is_in = 1U;
 1200              		.loc 1 1484 0
 1201 0010 2300     		movs	r3, r4
1481:Drivers/STM32F0xx_HAL_Driver/Src/stm32f0xx_hal_pcd.c ****   ep->xfer_len = len;
 1202              		.loc 1 1481 0
 1203 0012 E263     		str	r2, [r4, #60]
 1204              		.loc 1 1484 0
 1205 0014 0122     		movs	r2, #1
 1206              	.LVL100:
 1207 0016 2933     		adds	r3, r3, #41
1485:Drivers/STM32F0xx_HAL_Driver/Src/stm32f0xx_hal_pcd.c ****   ep->num = ep_addr & EP_ADDR_MSK;
 1208              		.loc 1 1485 0
 1209 0018 2834     		adds	r4, r4, #40
 1210              	.LVL101:
1484:Drivers/STM32F0xx_HAL_Driver/Src/stm32f0xx_hal_pcd.c ****   ep->is_in = 1U;
 1211              		.loc 1 1484 0
 1212 001a 1A70     		strb	r2, [r3]
 1213              		.loc 1 1485 0
 1214 001c 2170     		strb	r1, [r4]
1478:Drivers/STM32F0xx_HAL_Driver/Src/stm32f0xx_hal_pcd.c **** 
 1215              		.loc 1 1478 0
 1216 001e 2900     		movs	r1, r5
ARM GAS  /tmp/ccTcoz65.s 			page 49


 1217 0020 2831     		adds	r1, r1, #40
 1218 0022 4118     		adds	r1, r0, r1
1486:Drivers/STM32F0xx_HAL_Driver/Src/stm32f0xx_hal_pcd.c **** 
1487:Drivers/STM32F0xx_HAL_Driver/Src/stm32f0xx_hal_pcd.c ****   if ((ep_addr & EP_ADDR_MSK) == 0U)
1488:Drivers/STM32F0xx_HAL_Driver/Src/stm32f0xx_hal_pcd.c ****   {
1489:Drivers/STM32F0xx_HAL_Driver/Src/stm32f0xx_hal_pcd.c ****     (void)USB_EP0StartXfer(hpcd->Instance, ep);
1490:Drivers/STM32F0xx_HAL_Driver/Src/stm32f0xx_hal_pcd.c ****   }
1491:Drivers/STM32F0xx_HAL_Driver/Src/stm32f0xx_hal_pcd.c ****   else
1492:Drivers/STM32F0xx_HAL_Driver/Src/stm32f0xx_hal_pcd.c ****   {
1493:Drivers/STM32F0xx_HAL_Driver/Src/stm32f0xx_hal_pcd.c ****     (void)USB_EPStartXfer(hpcd->Instance, ep);
 1219              		.loc 1 1493 0
 1220 0024 0068     		ldr	r0, [r0]
 1221              	.LVL102:
 1222 0026 FFF7FEFF 		bl	USB_EPStartXfer
 1223              	.LVL103:
1494:Drivers/STM32F0xx_HAL_Driver/Src/stm32f0xx_hal_pcd.c ****   }
1495:Drivers/STM32F0xx_HAL_Driver/Src/stm32f0xx_hal_pcd.c **** 
1496:Drivers/STM32F0xx_HAL_Driver/Src/stm32f0xx_hal_pcd.c ****   return HAL_OK;
1497:Drivers/STM32F0xx_HAL_Driver/Src/stm32f0xx_hal_pcd.c **** }
 1224              		.loc 1 1497 0
 1225              		@ sp needed
 1226 002a 0020     		movs	r0, #0
 1227              	.LVL104:
 1228 002c 70BD     		pop	{r4, r5, r6, pc}
 1229              		.cfi_endproc
 1230              	.LFE65:
 1232 002e C046     		.section	.text.HAL_PCD_IRQHandler,"ax",%progbits
 1233              		.align	2
 1234              		.global	HAL_PCD_IRQHandler
 1235              		.code	16
 1236              		.thumb_func
 1238              	HAL_PCD_IRQHandler:
 1239              	.LFB46:
 995:Drivers/STM32F0xx_HAL_Driver/Src/stm32f0xx_hal_pcd.c ****   if (__HAL_PCD_GET_FLAG(hpcd, USB_ISTR_CTR))
 1240              		.loc 1 995 0
 1241              		.cfi_startproc
 1242              		@ args = 0, pretend = 0, frame = 8
 1243              		@ frame_needed = 0, uses_anonymous_args = 0
 1244              	.LVL105:
 1245 0000 F0B5     		push	{r4, r5, r6, r7, lr}
 1246              	.LCFI12:
 1247              		.cfi_def_cfa_offset 20
 1248              		.cfi_offset 4, -20
 1249              		.cfi_offset 5, -16
 1250              		.cfi_offset 6, -12
 1251              		.cfi_offset 7, -8
 1252              		.cfi_offset 14, -4
 1253 0002 4446     		mov	r4, r8
 1254 0004 5F46     		mov	r7, fp
 1255 0006 5646     		mov	r6, r10
 1256 0008 4D46     		mov	r5, r9
 1257 000a F0B4     		push	{r4, r5, r6, r7}
 1258              	.LCFI13:
 1259              		.cfi_def_cfa_offset 36
 1260              		.cfi_offset 8, -36
 1261              		.cfi_offset 9, -32
 1262              		.cfi_offset 10, -28
ARM GAS  /tmp/ccTcoz65.s 			page 50


 1263              		.cfi_offset 11, -24
 1264 000c 0400     		movs	r4, r0
 1265 000e 83B0     		sub	sp, sp, #12
 1266              	.LCFI14:
 1267              		.cfi_def_cfa_offset 48
 996:Drivers/STM32F0xx_HAL_Driver/Src/stm32f0xx_hal_pcd.c ****   {
 1268              		.loc 1 996 0
 1269 0010 0068     		ldr	r0, [r0]
 1270              	.LVL106:
 1271 0012 FFF7FEFF 		bl	USB_ReadInterrupts
 1272              	.LVL107:
 1273 0016 0304     		lsls	r3, r0, #16
 1274 0018 00D5     		bpl	.LCB1016
 1275 001a C8E0     		b	.L85	@long jump
 1276              	.LCB1016:
 1277 001c 2068     		ldr	r0, [r4]
 1278              	.L86:
1003:Drivers/STM32F0xx_HAL_Driver/Src/stm32f0xx_hal_pcd.c ****   {
 1279              		.loc 1 1003 0
 1280 001e FFF7FEFF 		bl	USB_ReadInterrupts
 1281              	.LVL108:
 1282 0022 4305     		lsls	r3, r0, #21
 1283 0024 00D5     		bpl	.LCB1025
 1284 0026 A8E0     		b	.L163	@long jump
 1285              	.LCB1025:
 1286              	.L110:
1016:Drivers/STM32F0xx_HAL_Driver/Src/stm32f0xx_hal_pcd.c ****   {
 1287              		.loc 1 1016 0
 1288 0028 2068     		ldr	r0, [r4]
 1289 002a FFF7FEFF 		bl	USB_ReadInterrupts
 1290              	.LVL109:
 1291 002e 4304     		lsls	r3, r0, #17
 1292 0030 00D5     		bpl	.LCB1034
 1293 0032 89E0     		b	.L112	@long jump
 1294              	.LCB1034:
 1295 0034 2068     		ldr	r0, [r4]
 1296              	.L113:
1021:Drivers/STM32F0xx_HAL_Driver/Src/stm32f0xx_hal_pcd.c ****   {
 1297              		.loc 1 1021 0
 1298 0036 FFF7FEFF 		bl	USB_ReadInterrupts
 1299              	.LVL110:
 1300 003a 8304     		lsls	r3, r0, #18
 1301 003c 00D5     		bpl	.LCB1043
 1302 003e 7CE0     		b	.L114	@long jump
 1303              	.LCB1043:
 1304 0040 2068     		ldr	r0, [r4]
 1305              	.L115:
1026:Drivers/STM32F0xx_HAL_Driver/Src/stm32f0xx_hal_pcd.c ****   {
 1306              		.loc 1 1026 0
 1307 0042 FFF7FEFF 		bl	USB_ReadInterrupts
 1308              	.LVL111:
 1309 0046 C304     		lsls	r3, r0, #19
 1310 0048 42D4     		bmi	.L116
 1311 004a 2068     		ldr	r0, [r4]
1050:Drivers/STM32F0xx_HAL_Driver/Src/stm32f0xx_hal_pcd.c ****   {
 1312              		.loc 1 1050 0
 1313 004c FFF7FEFF 		bl	USB_ReadInterrupts
ARM GAS  /tmp/ccTcoz65.s 			page 51


 1314              	.LVL112:
 1315 0050 0305     		lsls	r3, r0, #20
 1316 0052 5AD4     		bmi	.L164
 1317              	.L120:
1071:Drivers/STM32F0xx_HAL_Driver/Src/stm32f0xx_hal_pcd.c ****   {
 1318              		.loc 1 1071 0
 1319 0054 2068     		ldr	r0, [r4]
 1320 0056 FFF7FEFF 		bl	USB_ReadInterrupts
 1321              	.LVL113:
 1322 005a 8022     		movs	r2, #128
 1323 005c 0242     		tst	r2, r0
 1324 005e 20D0     		beq	.L122
1073:Drivers/STM32F0xx_HAL_Driver/Src/stm32f0xx_hal_pcd.c ****     if (hpcd->LPM_State == LPM_L0)
 1325              		.loc 1 1073 0
 1326 0060 4420     		movs	r0, #68
 1327 0062 2368     		ldr	r3, [r4]
 1328 0064 195A     		ldrh	r1, [r3, r0]
 1329 0066 9143     		bics	r1, r2
1074:Drivers/STM32F0xx_HAL_Driver/Src/stm32f0xx_hal_pcd.c ****     {
 1330              		.loc 1 1074 0
 1331 0068 9822     		movs	r2, #152
1073:Drivers/STM32F0xx_HAL_Driver/Src/stm32f0xx_hal_pcd.c ****     if (hpcd->LPM_State == LPM_L0)
 1332              		.loc 1 1073 0
 1333 006a 1952     		strh	r1, [r3, r0]
1074:Drivers/STM32F0xx_HAL_Driver/Src/stm32f0xx_hal_pcd.c ****     {
 1334              		.loc 1 1074 0
 1335 006c 9200     		lsls	r2, r2, #2
 1336 006e A15C     		ldrb	r1, [r4, r2]
 1337 0070 0029     		cmp	r1, #0
 1338 0072 00D0     		beq	.LCB1082
 1339 0074 6FE0     		b	.L123	@long jump
 1340              	.LCB1082:
1077:Drivers/STM32F0xx_HAL_Driver/Src/stm32f0xx_hal_pcd.c ****       hpcd->Instance->CNTR |= USB_CNTR_FSUSP;
 1341              		.loc 1 1077 0
 1342 0076 4031     		adds	r1, r1, #64
 1343 0078 5D5A     		ldrh	r5, [r3, r1]
 1344 007a 4038     		subs	r0, r0, #64
 1345 007c 2843     		orrs	r0, r5
 1346 007e 5852     		strh	r0, [r3, r1]
1078:Drivers/STM32F0xx_HAL_Driver/Src/stm32f0xx_hal_pcd.c **** 
 1347              		.loc 1 1078 0
 1348 0080 0820     		movs	r0, #8
 1349 0082 5D5A     		ldrh	r5, [r3, r1]
 1350 0084 2843     		orrs	r0, r5
 1351 0086 5852     		strh	r0, [r3, r1]
1080:Drivers/STM32F0xx_HAL_Driver/Src/stm32f0xx_hal_pcd.c ****       hpcd->BESL = ((uint32_t)hpcd->Instance->LPMCSR & USB_LPMCSR_BESL) >> 2;
 1352              		.loc 1 1080 0
 1353 0088 3F39     		subs	r1, r1, #63
 1354 008a A154     		strb	r1, [r4, r2]
1081:Drivers/STM32F0xx_HAL_Driver/Src/stm32f0xx_hal_pcd.c **** #if (USE_HAL_PCD_REGISTER_CALLBACKS == 1U)
 1355              		.loc 1 1081 0
 1356 008c 5422     		movs	r2, #84
 1357 008e 9B5A     		ldrh	r3, [r3, r2]
 1358 0090 9C32     		adds	r2, r2, #156
 1359 0092 1340     		ands	r3, r2
 1360 0094 7532     		adds	r2, r2, #117
 1361 0096 9B08     		lsrs	r3, r3, #2
ARM GAS  /tmp/ccTcoz65.s 			page 52


 1362 0098 FF32     		adds	r2, r2, #255
 1363 009a A350     		str	r3, [r4, r2]
1085:Drivers/STM32F0xx_HAL_Driver/Src/stm32f0xx_hal_pcd.c **** #endif /* USE_HAL_PCD_REGISTER_CALLBACKS */
 1364              		.loc 1 1085 0
 1365 009c 2000     		movs	r0, r4
 1366 009e FFF7FEFF 		bl	HAL_PCDEx_LPM_Callback
 1367              	.LVL114:
 1368              	.L122:
1098:Drivers/STM32F0xx_HAL_Driver/Src/stm32f0xx_hal_pcd.c ****   {
 1369              		.loc 1 1098 0
 1370 00a2 2068     		ldr	r0, [r4]
 1371 00a4 FFF7FEFF 		bl	USB_ReadInterrupts
 1372              	.LVL115:
 1373 00a8 8305     		lsls	r3, r0, #22
 1374 00aa 5CD4     		bmi	.L165
 1375              	.L124:
1109:Drivers/STM32F0xx_HAL_Driver/Src/stm32f0xx_hal_pcd.c ****   {
 1376              		.loc 1 1109 0
 1377 00ac 2068     		ldr	r0, [r4]
 1378 00ae FFF7FEFF 		bl	USB_ReadInterrupts
 1379              	.LVL116:
 1380 00b2 C305     		lsls	r3, r0, #23
 1381 00b4 05D5     		bpl	.L84
1112:Drivers/STM32F0xx_HAL_Driver/Src/stm32f0xx_hal_pcd.c ****   }
 1382              		.loc 1 1112 0
 1383 00b6 4422     		movs	r2, #68
 1384 00b8 2168     		ldr	r1, [r4]
 1385 00ba C94B     		ldr	r3, .L172
 1386 00bc 885A     		ldrh	r0, [r1, r2]
 1387 00be 0340     		ands	r3, r0
 1388 00c0 8B52     		strh	r3, [r1, r2]
 1389              	.L84:
1114:Drivers/STM32F0xx_HAL_Driver/Src/stm32f0xx_hal_pcd.c **** 
 1390              		.loc 1 1114 0
 1391 00c2 03B0     		add	sp, sp, #12
 1392              		@ sp needed
 1393              	.LVL117:
 1394 00c4 3CBC     		pop	{r2, r3, r4, r5}
 1395 00c6 9046     		mov	r8, r2
 1396 00c8 9946     		mov	r9, r3
 1397 00ca A246     		mov	r10, r4
 1398 00cc AB46     		mov	fp, r5
 1399 00ce F0BD     		pop	{r4, r5, r6, r7, pc}
 1400              	.LVL118:
 1401              	.L116:
1028:Drivers/STM32F0xx_HAL_Driver/Src/stm32f0xx_hal_pcd.c ****     hpcd->Instance->CNTR &= (uint16_t) ~(USB_CNTR_FSUSP);
 1402              		.loc 1 1028 0
 1403 00d0 4023     		movs	r3, #64
 1404 00d2 0420     		movs	r0, #4
 1405 00d4 2268     		ldr	r2, [r4]
 1406 00d6 D15A     		ldrh	r1, [r2, r3]
 1407 00d8 8143     		bics	r1, r0
 1408 00da D152     		strh	r1, [r2, r3]
1029:Drivers/STM32F0xx_HAL_Driver/Src/stm32f0xx_hal_pcd.c **** 
 1409              		.loc 1 1029 0
 1410 00dc D15A     		ldrh	r1, [r2, r3]
 1411 00de 0430     		adds	r0, r0, #4
ARM GAS  /tmp/ccTcoz65.s 			page 53


 1412 00e0 8143     		bics	r1, r0
 1413 00e2 D152     		strh	r1, [r2, r3]
1031:Drivers/STM32F0xx_HAL_Driver/Src/stm32f0xx_hal_pcd.c ****     {
 1414              		.loc 1 1031 0
 1415 00e4 9823     		movs	r3, #152
 1416 00e6 9B00     		lsls	r3, r3, #2
 1417 00e8 E25C     		ldrb	r2, [r4, r3]
 1418 00ea 012A     		cmp	r2, #1
 1419 00ec 00D1     		bne	.LCB1177
 1420 00ee D9E1     		b	.L166	@long jump
 1421              	.LCB1177:
 1422              	.L118:
1044:Drivers/STM32F0xx_HAL_Driver/Src/stm32f0xx_hal_pcd.c **** #endif /* USE_HAL_PCD_REGISTER_CALLBACKS */
 1423              		.loc 1 1044 0
 1424 00f0 2000     		movs	r0, r4
 1425 00f2 FFF7FEFF 		bl	HAL_PCD_ResumeCallback
 1426              	.LVL119:
1047:Drivers/STM32F0xx_HAL_Driver/Src/stm32f0xx_hal_pcd.c ****   }
 1427              		.loc 1 1047 0
 1428 00f6 4422     		movs	r2, #68
 1429 00f8 2068     		ldr	r0, [r4]
 1430 00fa BA4B     		ldr	r3, .L172+4
 1431 00fc 815A     		ldrh	r1, [r0, r2]
 1432 00fe 0B40     		ands	r3, r1
 1433 0100 8352     		strh	r3, [r0, r2]
1050:Drivers/STM32F0xx_HAL_Driver/Src/stm32f0xx_hal_pcd.c ****   {
 1434              		.loc 1 1050 0
 1435 0102 FFF7FEFF 		bl	USB_ReadInterrupts
 1436              	.LVL120:
 1437 0106 0305     		lsls	r3, r0, #20
 1438 0108 A4D5     		bpl	.L120
 1439              	.L164:
1053:Drivers/STM32F0xx_HAL_Driver/Src/stm32f0xx_hal_pcd.c **** 
 1440              		.loc 1 1053 0
 1441 010a 4023     		movs	r3, #64
 1442 010c 0822     		movs	r2, #8
 1443 010e 2068     		ldr	r0, [r4]
 1444 0110 C15A     		ldrh	r1, [r0, r3]
 1445 0112 0A43     		orrs	r2, r1
1056:Drivers/STM32F0xx_HAL_Driver/Src/stm32f0xx_hal_pcd.c **** 
 1446              		.loc 1 1056 0
 1447 0114 4421     		movs	r1, #68
1053:Drivers/STM32F0xx_HAL_Driver/Src/stm32f0xx_hal_pcd.c **** 
 1448              		.loc 1 1053 0
 1449 0116 C252     		strh	r2, [r0, r3]
1056:Drivers/STM32F0xx_HAL_Driver/Src/stm32f0xx_hal_pcd.c **** 
 1450              		.loc 1 1056 0
 1451 0118 455A     		ldrh	r5, [r0, r1]
 1452 011a B34A     		ldr	r2, .L172+8
 1453 011c 2A40     		ands	r2, r5
 1454 011e 4252     		strh	r2, [r0, r1]
1058:Drivers/STM32F0xx_HAL_Driver/Src/stm32f0xx_hal_pcd.c **** 
 1455              		.loc 1 1058 0
 1456 0120 0422     		movs	r2, #4
 1457 0122 C15A     		ldrh	r1, [r0, r3]
 1458 0124 0A43     		orrs	r2, r1
 1459 0126 C252     		strh	r2, [r0, r3]
ARM GAS  /tmp/ccTcoz65.s 			page 54


1060:Drivers/STM32F0xx_HAL_Driver/Src/stm32f0xx_hal_pcd.c ****     {
 1460              		.loc 1 1060 0
 1461 0128 FFF7FEFF 		bl	USB_ReadInterrupts
 1462              	.LVL121:
 1463 012c C304     		lsls	r3, r0, #19
 1464 012e 00D5     		bpl	.LCB1222
 1465 0130 90E7     		b	.L120	@long jump
 1466              	.LCB1222:
1065:Drivers/STM32F0xx_HAL_Driver/Src/stm32f0xx_hal_pcd.c **** #endif /* USE_HAL_PCD_REGISTER_CALLBACKS */
 1467              		.loc 1 1065 0
 1468 0132 2000     		movs	r0, r4
 1469 0134 FFF7FEFF 		bl	HAL_PCD_SuspendCallback
 1470              	.LVL122:
 1471 0138 8CE7     		b	.L120
 1472              	.L114:
1023:Drivers/STM32F0xx_HAL_Driver/Src/stm32f0xx_hal_pcd.c ****   }
 1473              		.loc 1 1023 0
 1474 013a 4422     		movs	r2, #68
 1475 013c 2068     		ldr	r0, [r4]
 1476 013e AB4B     		ldr	r3, .L172+12
 1477 0140 815A     		ldrh	r1, [r0, r2]
 1478 0142 0B40     		ands	r3, r1
 1479 0144 8352     		strh	r3, [r0, r2]
 1480 0146 7CE7     		b	.L115
 1481              	.L112:
1018:Drivers/STM32F0xx_HAL_Driver/Src/stm32f0xx_hal_pcd.c ****   }
 1482              		.loc 1 1018 0
 1483 0148 4422     		movs	r2, #68
 1484 014a 2068     		ldr	r0, [r4]
 1485 014c A84B     		ldr	r3, .L172+16
 1486 014e 815A     		ldrh	r1, [r0, r2]
 1487 0150 0B40     		ands	r3, r1
 1488 0152 8352     		strh	r3, [r0, r2]
 1489 0154 6FE7     		b	.L113
 1490              	.L123:
1093:Drivers/STM32F0xx_HAL_Driver/Src/stm32f0xx_hal_pcd.c **** #endif /* USE_HAL_PCD_REGISTER_CALLBACKS */
 1491              		.loc 1 1093 0
 1492 0156 2000     		movs	r0, r4
 1493 0158 FFF7FEFF 		bl	HAL_PCD_SuspendCallback
 1494              	.LVL123:
1098:Drivers/STM32F0xx_HAL_Driver/Src/stm32f0xx_hal_pcd.c ****   {
 1495              		.loc 1 1098 0
 1496 015c 2068     		ldr	r0, [r4]
 1497 015e FFF7FEFF 		bl	USB_ReadInterrupts
 1498              	.LVL124:
 1499 0162 8305     		lsls	r3, r0, #22
 1500 0164 A2D5     		bpl	.L124
 1501              	.L165:
1100:Drivers/STM32F0xx_HAL_Driver/Src/stm32f0xx_hal_pcd.c **** 
 1502              		.loc 1 1100 0
 1503 0166 4422     		movs	r2, #68
 1504 0168 2168     		ldr	r1, [r4]
 1505 016a A24B     		ldr	r3, .L172+20
 1506 016c 885A     		ldrh	r0, [r1, r2]
 1507 016e 0340     		ands	r3, r0
 1508 0170 8B52     		strh	r3, [r1, r2]
1105:Drivers/STM32F0xx_HAL_Driver/Src/stm32f0xx_hal_pcd.c **** #endif /* USE_HAL_PCD_REGISTER_CALLBACKS */
ARM GAS  /tmp/ccTcoz65.s 			page 55


 1509              		.loc 1 1105 0
 1510 0172 2000     		movs	r0, r4
 1511 0174 FFF7FEFF 		bl	HAL_PCD_SOFCallback
 1512              	.LVL125:
 1513 0178 98E7     		b	.L124
 1514              	.L163:
1005:Drivers/STM32F0xx_HAL_Driver/Src/stm32f0xx_hal_pcd.c **** 
 1515              		.loc 1 1005 0
 1516 017a 4422     		movs	r2, #68
 1517              	.LBB41:
 1518              	.LBB42:
1342:Drivers/STM32F0xx_HAL_Driver/Src/stm32f0xx_hal_pcd.c ****   hpcd->USB_Address = address;
 1519              		.loc 1 1342 0
 1520 017c 8A25     		movs	r5, #138
 1521              	.LBE42:
 1522              	.LBE41:
1005:Drivers/STM32F0xx_HAL_Driver/Src/stm32f0xx_hal_pcd.c **** 
 1523              		.loc 1 1005 0
 1524 017e 2168     		ldr	r1, [r4]
 1525 0180 9D4B     		ldr	r3, .L172+24
 1526 0182 885A     		ldrh	r0, [r1, r2]
 1527              	.LBB47:
 1528              	.LBB45:
1342:Drivers/STM32F0xx_HAL_Driver/Src/stm32f0xx_hal_pcd.c ****   hpcd->USB_Address = address;
 1529              		.loc 1 1342 0
 1530 0184 AD00     		lsls	r5, r5, #2
 1531              	.LBE45:
 1532              	.LBE47:
1005:Drivers/STM32F0xx_HAL_Driver/Src/stm32f0xx_hal_pcd.c **** 
 1533              		.loc 1 1005 0
 1534 0186 0340     		ands	r3, r0
 1535 0188 8B52     		strh	r3, [r1, r2]
1010:Drivers/STM32F0xx_HAL_Driver/Src/stm32f0xx_hal_pcd.c **** #endif /* USE_HAL_PCD_REGISTER_CALLBACKS */
 1536              		.loc 1 1010 0
 1537 018a 2000     		movs	r0, r4
 1538 018c FFF7FEFF 		bl	HAL_PCD_ResetCallback
 1539              	.LVL126:
 1540              	.LBB48:
 1541              	.LBB46:
1342:Drivers/STM32F0xx_HAL_Driver/Src/stm32f0xx_hal_pcd.c ****   hpcd->USB_Address = address;
 1542              		.loc 1 1342 0
 1543 0190 635D     		ldrb	r3, [r4, r5]
 1544 0192 012B     		cmp	r3, #1
 1545 0194 00D1     		bne	.LCB1310
 1546 0196 47E7     		b	.L110	@long jump
 1547              	.LCB1310:
 1548              	.LVL127:
 1549              	.LBB43:
 1550              	.LBB44:
 1551 0198 0123     		movs	r3, #1
1343:Drivers/STM32F0xx_HAL_Driver/Src/stm32f0xx_hal_pcd.c ****   (void)USB_SetDevAddress(hpcd->Instance, address);
 1552              		.loc 1 1343 0
 1553 019a 0026     		movs	r6, #0
1342:Drivers/STM32F0xx_HAL_Driver/Src/stm32f0xx_hal_pcd.c ****   hpcd->USB_Address = address;
 1554              		.loc 1 1342 0
 1555 019c 6355     		strb	r3, [r4, r5]
1343:Drivers/STM32F0xx_HAL_Driver/Src/stm32f0xx_hal_pcd.c ****   (void)USB_SetDevAddress(hpcd->Instance, address);
ARM GAS  /tmp/ccTcoz65.s 			page 56


 1556              		.loc 1 1343 0
 1557 019e 2333     		adds	r3, r3, #35
 1558 01a0 E654     		strb	r6, [r4, r3]
1344:Drivers/STM32F0xx_HAL_Driver/Src/stm32f0xx_hal_pcd.c ****   __HAL_UNLOCK(hpcd);
 1559              		.loc 1 1344 0
 1560 01a2 0021     		movs	r1, #0
 1561 01a4 2068     		ldr	r0, [r4]
 1562 01a6 FFF7FEFF 		bl	USB_SetDevAddress
 1563              	.LVL128:
1345:Drivers/STM32F0xx_HAL_Driver/Src/stm32f0xx_hal_pcd.c ****   return HAL_OK;
 1564              		.loc 1 1345 0
 1565 01aa 6655     		strb	r6, [r4, r5]
 1566 01ac 3CE7     		b	.L110
 1567              	.LVL129:
 1568              	.L85:
 1569              	.LBE44:
 1570              	.LBE43:
 1571              	.LBE46:
 1572              	.LBE48:
 1573              	.LBB49:
 1574              	.LBB50:
1498:Drivers/STM32F0xx_HAL_Driver/Src/stm32f0xx_hal_pcd.c **** 
1499:Drivers/STM32F0xx_HAL_Driver/Src/stm32f0xx_hal_pcd.c **** /**
1500:Drivers/STM32F0xx_HAL_Driver/Src/stm32f0xx_hal_pcd.c ****   * @brief  Set a STALL condition over an endpoint
1501:Drivers/STM32F0xx_HAL_Driver/Src/stm32f0xx_hal_pcd.c ****   * @param  hpcd PCD handle
1502:Drivers/STM32F0xx_HAL_Driver/Src/stm32f0xx_hal_pcd.c ****   * @param  ep_addr endpoint address
1503:Drivers/STM32F0xx_HAL_Driver/Src/stm32f0xx_hal_pcd.c ****   * @retval HAL status
1504:Drivers/STM32F0xx_HAL_Driver/Src/stm32f0xx_hal_pcd.c ****   */
1505:Drivers/STM32F0xx_HAL_Driver/Src/stm32f0xx_hal_pcd.c **** HAL_StatusTypeDef HAL_PCD_EP_SetStall(PCD_HandleTypeDef *hpcd, uint8_t ep_addr)
1506:Drivers/STM32F0xx_HAL_Driver/Src/stm32f0xx_hal_pcd.c **** {
1507:Drivers/STM32F0xx_HAL_Driver/Src/stm32f0xx_hal_pcd.c ****   PCD_EPTypeDef *ep;
1508:Drivers/STM32F0xx_HAL_Driver/Src/stm32f0xx_hal_pcd.c **** 
1509:Drivers/STM32F0xx_HAL_Driver/Src/stm32f0xx_hal_pcd.c ****   if (((uint32_t)ep_addr & EP_ADDR_MSK) > hpcd->Init.dev_endpoints)
1510:Drivers/STM32F0xx_HAL_Driver/Src/stm32f0xx_hal_pcd.c ****   {
1511:Drivers/STM32F0xx_HAL_Driver/Src/stm32f0xx_hal_pcd.c ****     return HAL_ERROR;
1512:Drivers/STM32F0xx_HAL_Driver/Src/stm32f0xx_hal_pcd.c ****   }
1513:Drivers/STM32F0xx_HAL_Driver/Src/stm32f0xx_hal_pcd.c **** 
1514:Drivers/STM32F0xx_HAL_Driver/Src/stm32f0xx_hal_pcd.c ****   if ((0x80U & ep_addr) == 0x80U)
1515:Drivers/STM32F0xx_HAL_Driver/Src/stm32f0xx_hal_pcd.c ****   {
1516:Drivers/STM32F0xx_HAL_Driver/Src/stm32f0xx_hal_pcd.c ****     ep = &hpcd->IN_ep[ep_addr & EP_ADDR_MSK];
1517:Drivers/STM32F0xx_HAL_Driver/Src/stm32f0xx_hal_pcd.c ****     ep->is_in = 1U;
1518:Drivers/STM32F0xx_HAL_Driver/Src/stm32f0xx_hal_pcd.c ****   }
1519:Drivers/STM32F0xx_HAL_Driver/Src/stm32f0xx_hal_pcd.c ****   else
1520:Drivers/STM32F0xx_HAL_Driver/Src/stm32f0xx_hal_pcd.c ****   {
1521:Drivers/STM32F0xx_HAL_Driver/Src/stm32f0xx_hal_pcd.c ****     ep = &hpcd->OUT_ep[ep_addr];
1522:Drivers/STM32F0xx_HAL_Driver/Src/stm32f0xx_hal_pcd.c ****     ep->is_in = 0U;
1523:Drivers/STM32F0xx_HAL_Driver/Src/stm32f0xx_hal_pcd.c ****   }
1524:Drivers/STM32F0xx_HAL_Driver/Src/stm32f0xx_hal_pcd.c **** 
1525:Drivers/STM32F0xx_HAL_Driver/Src/stm32f0xx_hal_pcd.c ****   ep->is_stall = 1U;
1526:Drivers/STM32F0xx_HAL_Driver/Src/stm32f0xx_hal_pcd.c ****   ep->num = ep_addr & EP_ADDR_MSK;
1527:Drivers/STM32F0xx_HAL_Driver/Src/stm32f0xx_hal_pcd.c **** 
1528:Drivers/STM32F0xx_HAL_Driver/Src/stm32f0xx_hal_pcd.c ****   __HAL_LOCK(hpcd);
1529:Drivers/STM32F0xx_HAL_Driver/Src/stm32f0xx_hal_pcd.c **** 
1530:Drivers/STM32F0xx_HAL_Driver/Src/stm32f0xx_hal_pcd.c ****   (void)USB_EPSetStall(hpcd->Instance, ep);
1531:Drivers/STM32F0xx_HAL_Driver/Src/stm32f0xx_hal_pcd.c ****   if ((ep_addr & EP_ADDR_MSK) == 0U)
1532:Drivers/STM32F0xx_HAL_Driver/Src/stm32f0xx_hal_pcd.c ****   {
1533:Drivers/STM32F0xx_HAL_Driver/Src/stm32f0xx_hal_pcd.c ****     (void)USB_EP0_OutStart(hpcd->Instance, (uint8_t *)hpcd->Setup);
ARM GAS  /tmp/ccTcoz65.s 			page 57


1534:Drivers/STM32F0xx_HAL_Driver/Src/stm32f0xx_hal_pcd.c ****   }
1535:Drivers/STM32F0xx_HAL_Driver/Src/stm32f0xx_hal_pcd.c ****   __HAL_UNLOCK(hpcd);
1536:Drivers/STM32F0xx_HAL_Driver/Src/stm32f0xx_hal_pcd.c **** 
1537:Drivers/STM32F0xx_HAL_Driver/Src/stm32f0xx_hal_pcd.c ****   return HAL_OK;
1538:Drivers/STM32F0xx_HAL_Driver/Src/stm32f0xx_hal_pcd.c **** }
1539:Drivers/STM32F0xx_HAL_Driver/Src/stm32f0xx_hal_pcd.c **** 
1540:Drivers/STM32F0xx_HAL_Driver/Src/stm32f0xx_hal_pcd.c **** /**
1541:Drivers/STM32F0xx_HAL_Driver/Src/stm32f0xx_hal_pcd.c ****   * @brief  Clear a STALL condition over in an endpoint
1542:Drivers/STM32F0xx_HAL_Driver/Src/stm32f0xx_hal_pcd.c ****   * @param  hpcd PCD handle
1543:Drivers/STM32F0xx_HAL_Driver/Src/stm32f0xx_hal_pcd.c ****   * @param  ep_addr endpoint address
1544:Drivers/STM32F0xx_HAL_Driver/Src/stm32f0xx_hal_pcd.c ****   * @retval HAL status
1545:Drivers/STM32F0xx_HAL_Driver/Src/stm32f0xx_hal_pcd.c ****   */
1546:Drivers/STM32F0xx_HAL_Driver/Src/stm32f0xx_hal_pcd.c **** HAL_StatusTypeDef HAL_PCD_EP_ClrStall(PCD_HandleTypeDef *hpcd, uint8_t ep_addr)
1547:Drivers/STM32F0xx_HAL_Driver/Src/stm32f0xx_hal_pcd.c **** {
1548:Drivers/STM32F0xx_HAL_Driver/Src/stm32f0xx_hal_pcd.c ****   PCD_EPTypeDef *ep;
1549:Drivers/STM32F0xx_HAL_Driver/Src/stm32f0xx_hal_pcd.c **** 
1550:Drivers/STM32F0xx_HAL_Driver/Src/stm32f0xx_hal_pcd.c ****   if (((uint32_t)ep_addr & 0x0FU) > hpcd->Init.dev_endpoints)
1551:Drivers/STM32F0xx_HAL_Driver/Src/stm32f0xx_hal_pcd.c ****   {
1552:Drivers/STM32F0xx_HAL_Driver/Src/stm32f0xx_hal_pcd.c ****     return HAL_ERROR;
1553:Drivers/STM32F0xx_HAL_Driver/Src/stm32f0xx_hal_pcd.c ****   }
1554:Drivers/STM32F0xx_HAL_Driver/Src/stm32f0xx_hal_pcd.c **** 
1555:Drivers/STM32F0xx_HAL_Driver/Src/stm32f0xx_hal_pcd.c ****   if ((0x80U & ep_addr) == 0x80U)
1556:Drivers/STM32F0xx_HAL_Driver/Src/stm32f0xx_hal_pcd.c ****   {
1557:Drivers/STM32F0xx_HAL_Driver/Src/stm32f0xx_hal_pcd.c ****     ep = &hpcd->IN_ep[ep_addr & EP_ADDR_MSK];
1558:Drivers/STM32F0xx_HAL_Driver/Src/stm32f0xx_hal_pcd.c ****     ep->is_in = 1U;
1559:Drivers/STM32F0xx_HAL_Driver/Src/stm32f0xx_hal_pcd.c ****   }
1560:Drivers/STM32F0xx_HAL_Driver/Src/stm32f0xx_hal_pcd.c ****   else
1561:Drivers/STM32F0xx_HAL_Driver/Src/stm32f0xx_hal_pcd.c ****   {
1562:Drivers/STM32F0xx_HAL_Driver/Src/stm32f0xx_hal_pcd.c ****     ep = &hpcd->OUT_ep[ep_addr & EP_ADDR_MSK];
1563:Drivers/STM32F0xx_HAL_Driver/Src/stm32f0xx_hal_pcd.c ****     ep->is_in = 0U;
1564:Drivers/STM32F0xx_HAL_Driver/Src/stm32f0xx_hal_pcd.c ****   }
1565:Drivers/STM32F0xx_HAL_Driver/Src/stm32f0xx_hal_pcd.c **** 
1566:Drivers/STM32F0xx_HAL_Driver/Src/stm32f0xx_hal_pcd.c ****   ep->is_stall = 0U;
1567:Drivers/STM32F0xx_HAL_Driver/Src/stm32f0xx_hal_pcd.c ****   ep->num = ep_addr & EP_ADDR_MSK;
1568:Drivers/STM32F0xx_HAL_Driver/Src/stm32f0xx_hal_pcd.c **** 
1569:Drivers/STM32F0xx_HAL_Driver/Src/stm32f0xx_hal_pcd.c ****   __HAL_LOCK(hpcd);
1570:Drivers/STM32F0xx_HAL_Driver/Src/stm32f0xx_hal_pcd.c ****   (void)USB_EPClearStall(hpcd->Instance, ep);
1571:Drivers/STM32F0xx_HAL_Driver/Src/stm32f0xx_hal_pcd.c ****   __HAL_UNLOCK(hpcd);
1572:Drivers/STM32F0xx_HAL_Driver/Src/stm32f0xx_hal_pcd.c **** 
1573:Drivers/STM32F0xx_HAL_Driver/Src/stm32f0xx_hal_pcd.c ****   return HAL_OK;
1574:Drivers/STM32F0xx_HAL_Driver/Src/stm32f0xx_hal_pcd.c **** }
1575:Drivers/STM32F0xx_HAL_Driver/Src/stm32f0xx_hal_pcd.c **** 
1576:Drivers/STM32F0xx_HAL_Driver/Src/stm32f0xx_hal_pcd.c **** /**
1577:Drivers/STM32F0xx_HAL_Driver/Src/stm32f0xx_hal_pcd.c ****   * @brief  Flush an endpoint
1578:Drivers/STM32F0xx_HAL_Driver/Src/stm32f0xx_hal_pcd.c ****   * @param  hpcd PCD handle
1579:Drivers/STM32F0xx_HAL_Driver/Src/stm32f0xx_hal_pcd.c ****   * @param  ep_addr endpoint address
1580:Drivers/STM32F0xx_HAL_Driver/Src/stm32f0xx_hal_pcd.c ****   * @retval HAL status
1581:Drivers/STM32F0xx_HAL_Driver/Src/stm32f0xx_hal_pcd.c ****   */
1582:Drivers/STM32F0xx_HAL_Driver/Src/stm32f0xx_hal_pcd.c **** HAL_StatusTypeDef HAL_PCD_EP_Flush(PCD_HandleTypeDef *hpcd, uint8_t ep_addr)
1583:Drivers/STM32F0xx_HAL_Driver/Src/stm32f0xx_hal_pcd.c **** {
1584:Drivers/STM32F0xx_HAL_Driver/Src/stm32f0xx_hal_pcd.c ****   /* Prevent unused argument(s) compilation warning */
1585:Drivers/STM32F0xx_HAL_Driver/Src/stm32f0xx_hal_pcd.c ****   UNUSED(hpcd);
1586:Drivers/STM32F0xx_HAL_Driver/Src/stm32f0xx_hal_pcd.c ****   UNUSED(ep_addr);
1587:Drivers/STM32F0xx_HAL_Driver/Src/stm32f0xx_hal_pcd.c **** 
1588:Drivers/STM32F0xx_HAL_Driver/Src/stm32f0xx_hal_pcd.c ****   return HAL_OK;
1589:Drivers/STM32F0xx_HAL_Driver/Src/stm32f0xx_hal_pcd.c **** }
1590:Drivers/STM32F0xx_HAL_Driver/Src/stm32f0xx_hal_pcd.c **** 
ARM GAS  /tmp/ccTcoz65.s 			page 58


1591:Drivers/STM32F0xx_HAL_Driver/Src/stm32f0xx_hal_pcd.c **** /**
1592:Drivers/STM32F0xx_HAL_Driver/Src/stm32f0xx_hal_pcd.c ****   * @brief  Activate remote wakeup signalling
1593:Drivers/STM32F0xx_HAL_Driver/Src/stm32f0xx_hal_pcd.c ****   * @param  hpcd PCD handle
1594:Drivers/STM32F0xx_HAL_Driver/Src/stm32f0xx_hal_pcd.c ****   * @retval HAL status
1595:Drivers/STM32F0xx_HAL_Driver/Src/stm32f0xx_hal_pcd.c ****   */
1596:Drivers/STM32F0xx_HAL_Driver/Src/stm32f0xx_hal_pcd.c **** HAL_StatusTypeDef HAL_PCD_ActivateRemoteWakeup(PCD_HandleTypeDef *hpcd)
1597:Drivers/STM32F0xx_HAL_Driver/Src/stm32f0xx_hal_pcd.c **** {
1598:Drivers/STM32F0xx_HAL_Driver/Src/stm32f0xx_hal_pcd.c ****   return (USB_ActivateRemoteWakeup(hpcd->Instance));
1599:Drivers/STM32F0xx_HAL_Driver/Src/stm32f0xx_hal_pcd.c **** }
1600:Drivers/STM32F0xx_HAL_Driver/Src/stm32f0xx_hal_pcd.c **** 
1601:Drivers/STM32F0xx_HAL_Driver/Src/stm32f0xx_hal_pcd.c **** /**
1602:Drivers/STM32F0xx_HAL_Driver/Src/stm32f0xx_hal_pcd.c ****   * @brief  De-activate remote wakeup signalling.
1603:Drivers/STM32F0xx_HAL_Driver/Src/stm32f0xx_hal_pcd.c ****   * @param  hpcd PCD handle
1604:Drivers/STM32F0xx_HAL_Driver/Src/stm32f0xx_hal_pcd.c ****   * @retval HAL status
1605:Drivers/STM32F0xx_HAL_Driver/Src/stm32f0xx_hal_pcd.c ****   */
1606:Drivers/STM32F0xx_HAL_Driver/Src/stm32f0xx_hal_pcd.c **** HAL_StatusTypeDef HAL_PCD_DeActivateRemoteWakeup(PCD_HandleTypeDef *hpcd)
1607:Drivers/STM32F0xx_HAL_Driver/Src/stm32f0xx_hal_pcd.c **** {
1608:Drivers/STM32F0xx_HAL_Driver/Src/stm32f0xx_hal_pcd.c ****   return (USB_DeActivateRemoteWakeup(hpcd->Instance));
1609:Drivers/STM32F0xx_HAL_Driver/Src/stm32f0xx_hal_pcd.c **** }
1610:Drivers/STM32F0xx_HAL_Driver/Src/stm32f0xx_hal_pcd.c **** 
1611:Drivers/STM32F0xx_HAL_Driver/Src/stm32f0xx_hal_pcd.c **** /**
1612:Drivers/STM32F0xx_HAL_Driver/Src/stm32f0xx_hal_pcd.c ****   * @}
1613:Drivers/STM32F0xx_HAL_Driver/Src/stm32f0xx_hal_pcd.c ****   */
1614:Drivers/STM32F0xx_HAL_Driver/Src/stm32f0xx_hal_pcd.c **** 
1615:Drivers/STM32F0xx_HAL_Driver/Src/stm32f0xx_hal_pcd.c **** /** @defgroup PCD_Exported_Functions_Group4 Peripheral State functions
1616:Drivers/STM32F0xx_HAL_Driver/Src/stm32f0xx_hal_pcd.c ****  *  @brief   Peripheral State functions
1617:Drivers/STM32F0xx_HAL_Driver/Src/stm32f0xx_hal_pcd.c ****  *
1618:Drivers/STM32F0xx_HAL_Driver/Src/stm32f0xx_hal_pcd.c **** @verbatim
1619:Drivers/STM32F0xx_HAL_Driver/Src/stm32f0xx_hal_pcd.c ****  ===============================================================================
1620:Drivers/STM32F0xx_HAL_Driver/Src/stm32f0xx_hal_pcd.c ****                       ##### Peripheral State functions #####
1621:Drivers/STM32F0xx_HAL_Driver/Src/stm32f0xx_hal_pcd.c ****  ===============================================================================
1622:Drivers/STM32F0xx_HAL_Driver/Src/stm32f0xx_hal_pcd.c ****     [..]
1623:Drivers/STM32F0xx_HAL_Driver/Src/stm32f0xx_hal_pcd.c ****     This subsection permits to get in run-time the status of the peripheral
1624:Drivers/STM32F0xx_HAL_Driver/Src/stm32f0xx_hal_pcd.c ****     and the data flow.
1625:Drivers/STM32F0xx_HAL_Driver/Src/stm32f0xx_hal_pcd.c **** 
1626:Drivers/STM32F0xx_HAL_Driver/Src/stm32f0xx_hal_pcd.c **** @endverbatim
1627:Drivers/STM32F0xx_HAL_Driver/Src/stm32f0xx_hal_pcd.c ****   * @{
1628:Drivers/STM32F0xx_HAL_Driver/Src/stm32f0xx_hal_pcd.c ****   */
1629:Drivers/STM32F0xx_HAL_Driver/Src/stm32f0xx_hal_pcd.c **** 
1630:Drivers/STM32F0xx_HAL_Driver/Src/stm32f0xx_hal_pcd.c **** /**
1631:Drivers/STM32F0xx_HAL_Driver/Src/stm32f0xx_hal_pcd.c ****   * @brief  Return the PCD handle state.
1632:Drivers/STM32F0xx_HAL_Driver/Src/stm32f0xx_hal_pcd.c ****   * @param  hpcd PCD handle
1633:Drivers/STM32F0xx_HAL_Driver/Src/stm32f0xx_hal_pcd.c ****   * @retval HAL state
1634:Drivers/STM32F0xx_HAL_Driver/Src/stm32f0xx_hal_pcd.c ****   */
1635:Drivers/STM32F0xx_HAL_Driver/Src/stm32f0xx_hal_pcd.c **** PCD_StateTypeDef HAL_PCD_GetState(PCD_HandleTypeDef *hpcd)
1636:Drivers/STM32F0xx_HAL_Driver/Src/stm32f0xx_hal_pcd.c **** {
1637:Drivers/STM32F0xx_HAL_Driver/Src/stm32f0xx_hal_pcd.c ****   return hpcd->State;
1638:Drivers/STM32F0xx_HAL_Driver/Src/stm32f0xx_hal_pcd.c **** }
1639:Drivers/STM32F0xx_HAL_Driver/Src/stm32f0xx_hal_pcd.c **** 
1640:Drivers/STM32F0xx_HAL_Driver/Src/stm32f0xx_hal_pcd.c **** /**
1641:Drivers/STM32F0xx_HAL_Driver/Src/stm32f0xx_hal_pcd.c ****   * @}
1642:Drivers/STM32F0xx_HAL_Driver/Src/stm32f0xx_hal_pcd.c ****   */
1643:Drivers/STM32F0xx_HAL_Driver/Src/stm32f0xx_hal_pcd.c **** 
1644:Drivers/STM32F0xx_HAL_Driver/Src/stm32f0xx_hal_pcd.c **** /**
1645:Drivers/STM32F0xx_HAL_Driver/Src/stm32f0xx_hal_pcd.c ****   * @}
1646:Drivers/STM32F0xx_HAL_Driver/Src/stm32f0xx_hal_pcd.c ****   */
1647:Drivers/STM32F0xx_HAL_Driver/Src/stm32f0xx_hal_pcd.c **** 
ARM GAS  /tmp/ccTcoz65.s 			page 59


1648:Drivers/STM32F0xx_HAL_Driver/Src/stm32f0xx_hal_pcd.c **** /* Private functions ---------------------------------------------------------*/
1649:Drivers/STM32F0xx_HAL_Driver/Src/stm32f0xx_hal_pcd.c **** /** @addtogroup PCD_Private_Functions
1650:Drivers/STM32F0xx_HAL_Driver/Src/stm32f0xx_hal_pcd.c ****   * @{
1651:Drivers/STM32F0xx_HAL_Driver/Src/stm32f0xx_hal_pcd.c ****   */
1652:Drivers/STM32F0xx_HAL_Driver/Src/stm32f0xx_hal_pcd.c **** 
1653:Drivers/STM32F0xx_HAL_Driver/Src/stm32f0xx_hal_pcd.c **** 
1654:Drivers/STM32F0xx_HAL_Driver/Src/stm32f0xx_hal_pcd.c **** /**
1655:Drivers/STM32F0xx_HAL_Driver/Src/stm32f0xx_hal_pcd.c ****   * @brief  This function handles PCD Endpoint interrupt request.
1656:Drivers/STM32F0xx_HAL_Driver/Src/stm32f0xx_hal_pcd.c ****   * @param  hpcd PCD handle
1657:Drivers/STM32F0xx_HAL_Driver/Src/stm32f0xx_hal_pcd.c ****   * @retval HAL status
1658:Drivers/STM32F0xx_HAL_Driver/Src/stm32f0xx_hal_pcd.c ****   */
1659:Drivers/STM32F0xx_HAL_Driver/Src/stm32f0xx_hal_pcd.c **** static HAL_StatusTypeDef PCD_EP_ISR_Handler(PCD_HandleTypeDef *hpcd)
1660:Drivers/STM32F0xx_HAL_Driver/Src/stm32f0xx_hal_pcd.c **** {
1661:Drivers/STM32F0xx_HAL_Driver/Src/stm32f0xx_hal_pcd.c ****   PCD_EPTypeDef *ep;
1662:Drivers/STM32F0xx_HAL_Driver/Src/stm32f0xx_hal_pcd.c ****   uint16_t count;
1663:Drivers/STM32F0xx_HAL_Driver/Src/stm32f0xx_hal_pcd.c ****   uint16_t wIstr;
1664:Drivers/STM32F0xx_HAL_Driver/Src/stm32f0xx_hal_pcd.c ****   uint16_t wEPVal;
1665:Drivers/STM32F0xx_HAL_Driver/Src/stm32f0xx_hal_pcd.c ****   uint8_t epindex;
1666:Drivers/STM32F0xx_HAL_Driver/Src/stm32f0xx_hal_pcd.c **** 
1667:Drivers/STM32F0xx_HAL_Driver/Src/stm32f0xx_hal_pcd.c ****   /* stay in loop while pending interrupts */
1668:Drivers/STM32F0xx_HAL_Driver/Src/stm32f0xx_hal_pcd.c ****   while ((hpcd->Instance->ISTR & USB_ISTR_CTR) != 0U)
1669:Drivers/STM32F0xx_HAL_Driver/Src/stm32f0xx_hal_pcd.c ****   {
1670:Drivers/STM32F0xx_HAL_Driver/Src/stm32f0xx_hal_pcd.c ****     wIstr = hpcd->Instance->ISTR;
1671:Drivers/STM32F0xx_HAL_Driver/Src/stm32f0xx_hal_pcd.c ****     /* extract highest priority endpoint number */
1672:Drivers/STM32F0xx_HAL_Driver/Src/stm32f0xx_hal_pcd.c ****     epindex = (uint8_t)(wIstr & USB_ISTR_EP_ID);
 1575              		.loc 1 1672 0
 1576 01ae 0F23     		movs	r3, #15
 1577 01b0 9A46     		mov	r10, r3
1673:Drivers/STM32F0xx_HAL_Driver/Src/stm32f0xx_hal_pcd.c **** 
1674:Drivers/STM32F0xx_HAL_Driver/Src/stm32f0xx_hal_pcd.c ****     if (epindex == 0U)
1675:Drivers/STM32F0xx_HAL_Driver/Src/stm32f0xx_hal_pcd.c ****     {
1676:Drivers/STM32F0xx_HAL_Driver/Src/stm32f0xx_hal_pcd.c ****       /* Decode and service control endpoint interrupt */
1677:Drivers/STM32F0xx_HAL_Driver/Src/stm32f0xx_hal_pcd.c **** 
1678:Drivers/STM32F0xx_HAL_Driver/Src/stm32f0xx_hal_pcd.c ****       /* DIR bit = origin of the interrupt */
1679:Drivers/STM32F0xx_HAL_Driver/Src/stm32f0xx_hal_pcd.c ****       if ((wIstr & USB_ISTR_DIR) == 0U)
1680:Drivers/STM32F0xx_HAL_Driver/Src/stm32f0xx_hal_pcd.c ****       {
1681:Drivers/STM32F0xx_HAL_Driver/Src/stm32f0xx_hal_pcd.c ****         /* DIR = 0 */
1682:Drivers/STM32F0xx_HAL_Driver/Src/stm32f0xx_hal_pcd.c **** 
1683:Drivers/STM32F0xx_HAL_Driver/Src/stm32f0xx_hal_pcd.c ****         /* DIR = 0      => IN  int */
1684:Drivers/STM32F0xx_HAL_Driver/Src/stm32f0xx_hal_pcd.c ****         /* DIR = 0 implies that (EP_CTR_TX = 1) always  */
1685:Drivers/STM32F0xx_HAL_Driver/Src/stm32f0xx_hal_pcd.c ****         PCD_CLEAR_TX_EP_CTR(hpcd->Instance, PCD_ENDP0);
1686:Drivers/STM32F0xx_HAL_Driver/Src/stm32f0xx_hal_pcd.c ****         ep = &hpcd->IN_ep[0];
1687:Drivers/STM32F0xx_HAL_Driver/Src/stm32f0xx_hal_pcd.c **** 
1688:Drivers/STM32F0xx_HAL_Driver/Src/stm32f0xx_hal_pcd.c ****         ep->xfer_count = PCD_GET_EP_TX_CNT(hpcd->Instance, ep->num);
1689:Drivers/STM32F0xx_HAL_Driver/Src/stm32f0xx_hal_pcd.c ****         ep->xfer_buff += ep->xfer_count;
1690:Drivers/STM32F0xx_HAL_Driver/Src/stm32f0xx_hal_pcd.c **** 
1691:Drivers/STM32F0xx_HAL_Driver/Src/stm32f0xx_hal_pcd.c ****         /* TX COMPLETE */
1692:Drivers/STM32F0xx_HAL_Driver/Src/stm32f0xx_hal_pcd.c **** #if (USE_HAL_PCD_REGISTER_CALLBACKS == 1U)
1693:Drivers/STM32F0xx_HAL_Driver/Src/stm32f0xx_hal_pcd.c ****         hpcd->DataInStageCallback(hpcd, 0U);
1694:Drivers/STM32F0xx_HAL_Driver/Src/stm32f0xx_hal_pcd.c **** #else
1695:Drivers/STM32F0xx_HAL_Driver/Src/stm32f0xx_hal_pcd.c ****         HAL_PCD_DataInStageCallback(hpcd, 0U);
1696:Drivers/STM32F0xx_HAL_Driver/Src/stm32f0xx_hal_pcd.c **** #endif /* USE_HAL_PCD_REGISTER_CALLBACKS */
1697:Drivers/STM32F0xx_HAL_Driver/Src/stm32f0xx_hal_pcd.c **** 
1698:Drivers/STM32F0xx_HAL_Driver/Src/stm32f0xx_hal_pcd.c ****         if ((hpcd->USB_Address > 0U) && (ep->xfer_len == 0U))
1699:Drivers/STM32F0xx_HAL_Driver/Src/stm32f0xx_hal_pcd.c ****         {
1700:Drivers/STM32F0xx_HAL_Driver/Src/stm32f0xx_hal_pcd.c ****           hpcd->Instance->DADDR = ((uint16_t)hpcd->USB_Address | USB_DADDR_EF);
1701:Drivers/STM32F0xx_HAL_Driver/Src/stm32f0xx_hal_pcd.c ****           hpcd->USB_Address = 0U;
ARM GAS  /tmp/ccTcoz65.s 			page 60


1702:Drivers/STM32F0xx_HAL_Driver/Src/stm32f0xx_hal_pcd.c ****         }
1703:Drivers/STM32F0xx_HAL_Driver/Src/stm32f0xx_hal_pcd.c ****       }
1704:Drivers/STM32F0xx_HAL_Driver/Src/stm32f0xx_hal_pcd.c ****       else
1705:Drivers/STM32F0xx_HAL_Driver/Src/stm32f0xx_hal_pcd.c ****       {
1706:Drivers/STM32F0xx_HAL_Driver/Src/stm32f0xx_hal_pcd.c ****         /* DIR = 1 */
1707:Drivers/STM32F0xx_HAL_Driver/Src/stm32f0xx_hal_pcd.c **** 
1708:Drivers/STM32F0xx_HAL_Driver/Src/stm32f0xx_hal_pcd.c ****         /* DIR = 1 & CTR_RX       => SETUP or OUT int */
1709:Drivers/STM32F0xx_HAL_Driver/Src/stm32f0xx_hal_pcd.c ****         /* DIR = 1 & (CTR_TX | CTR_RX) => 2 int pending */
1710:Drivers/STM32F0xx_HAL_Driver/Src/stm32f0xx_hal_pcd.c ****         ep = &hpcd->OUT_ep[0];
1711:Drivers/STM32F0xx_HAL_Driver/Src/stm32f0xx_hal_pcd.c ****         wEPVal = PCD_GET_ENDPOINT(hpcd->Instance, PCD_ENDP0);
1712:Drivers/STM32F0xx_HAL_Driver/Src/stm32f0xx_hal_pcd.c **** 
1713:Drivers/STM32F0xx_HAL_Driver/Src/stm32f0xx_hal_pcd.c ****         if ((wEPVal & USB_EP_SETUP) != 0U)
1714:Drivers/STM32F0xx_HAL_Driver/Src/stm32f0xx_hal_pcd.c ****         {
1715:Drivers/STM32F0xx_HAL_Driver/Src/stm32f0xx_hal_pcd.c ****           /* Get SETUP Packet*/
1716:Drivers/STM32F0xx_HAL_Driver/Src/stm32f0xx_hal_pcd.c ****           ep->xfer_count = PCD_GET_EP_RX_CNT(hpcd->Instance, ep->num);
1717:Drivers/STM32F0xx_HAL_Driver/Src/stm32f0xx_hal_pcd.c **** 
1718:Drivers/STM32F0xx_HAL_Driver/Src/stm32f0xx_hal_pcd.c ****           USB_ReadPMA(hpcd->Instance, (uint8_t *)hpcd->Setup,
1719:Drivers/STM32F0xx_HAL_Driver/Src/stm32f0xx_hal_pcd.c ****                       ep->pmaadress, (uint16_t)ep->xfer_count);
1720:Drivers/STM32F0xx_HAL_Driver/Src/stm32f0xx_hal_pcd.c **** 
1721:Drivers/STM32F0xx_HAL_Driver/Src/stm32f0xx_hal_pcd.c ****           /* SETUP bit kept frozen while CTR_RX = 1*/
1722:Drivers/STM32F0xx_HAL_Driver/Src/stm32f0xx_hal_pcd.c ****           PCD_CLEAR_RX_EP_CTR(hpcd->Instance, PCD_ENDP0);
1723:Drivers/STM32F0xx_HAL_Driver/Src/stm32f0xx_hal_pcd.c **** 
1724:Drivers/STM32F0xx_HAL_Driver/Src/stm32f0xx_hal_pcd.c ****           /* Process SETUP Packet*/
1725:Drivers/STM32F0xx_HAL_Driver/Src/stm32f0xx_hal_pcd.c **** #if (USE_HAL_PCD_REGISTER_CALLBACKS == 1U)
1726:Drivers/STM32F0xx_HAL_Driver/Src/stm32f0xx_hal_pcd.c ****           hpcd->SetupStageCallback(hpcd);
1727:Drivers/STM32F0xx_HAL_Driver/Src/stm32f0xx_hal_pcd.c **** #else
1728:Drivers/STM32F0xx_HAL_Driver/Src/stm32f0xx_hal_pcd.c ****           HAL_PCD_SetupStageCallback(hpcd);
1729:Drivers/STM32F0xx_HAL_Driver/Src/stm32f0xx_hal_pcd.c **** #endif /* USE_HAL_PCD_REGISTER_CALLBACKS */
1730:Drivers/STM32F0xx_HAL_Driver/Src/stm32f0xx_hal_pcd.c ****         }
1731:Drivers/STM32F0xx_HAL_Driver/Src/stm32f0xx_hal_pcd.c **** 
1732:Drivers/STM32F0xx_HAL_Driver/Src/stm32f0xx_hal_pcd.c ****         else if ((wEPVal & USB_EP_CTR_RX) != 0U)
1733:Drivers/STM32F0xx_HAL_Driver/Src/stm32f0xx_hal_pcd.c ****         {
1734:Drivers/STM32F0xx_HAL_Driver/Src/stm32f0xx_hal_pcd.c ****           PCD_CLEAR_RX_EP_CTR(hpcd->Instance, PCD_ENDP0);
1735:Drivers/STM32F0xx_HAL_Driver/Src/stm32f0xx_hal_pcd.c **** 
1736:Drivers/STM32F0xx_HAL_Driver/Src/stm32f0xx_hal_pcd.c ****           /* Get Control Data OUT Packet*/
1737:Drivers/STM32F0xx_HAL_Driver/Src/stm32f0xx_hal_pcd.c ****           ep->xfer_count = PCD_GET_EP_RX_CNT(hpcd->Instance, ep->num);
1738:Drivers/STM32F0xx_HAL_Driver/Src/stm32f0xx_hal_pcd.c **** 
1739:Drivers/STM32F0xx_HAL_Driver/Src/stm32f0xx_hal_pcd.c ****           if ((ep->xfer_count != 0U) && (ep->xfer_buff != 0U))
1740:Drivers/STM32F0xx_HAL_Driver/Src/stm32f0xx_hal_pcd.c ****           {
1741:Drivers/STM32F0xx_HAL_Driver/Src/stm32f0xx_hal_pcd.c ****             USB_ReadPMA(hpcd->Instance, ep->xfer_buff,
1742:Drivers/STM32F0xx_HAL_Driver/Src/stm32f0xx_hal_pcd.c ****                         ep->pmaadress, (uint16_t)ep->xfer_count);
1743:Drivers/STM32F0xx_HAL_Driver/Src/stm32f0xx_hal_pcd.c **** 
1744:Drivers/STM32F0xx_HAL_Driver/Src/stm32f0xx_hal_pcd.c ****             ep->xfer_buff += ep->xfer_count;
1745:Drivers/STM32F0xx_HAL_Driver/Src/stm32f0xx_hal_pcd.c **** 
1746:Drivers/STM32F0xx_HAL_Driver/Src/stm32f0xx_hal_pcd.c ****             /* Process Control Data OUT Packet*/
1747:Drivers/STM32F0xx_HAL_Driver/Src/stm32f0xx_hal_pcd.c **** #if (USE_HAL_PCD_REGISTER_CALLBACKS == 1U)
1748:Drivers/STM32F0xx_HAL_Driver/Src/stm32f0xx_hal_pcd.c ****             hpcd->DataOutStageCallback(hpcd, 0U);
1749:Drivers/STM32F0xx_HAL_Driver/Src/stm32f0xx_hal_pcd.c **** #else
1750:Drivers/STM32F0xx_HAL_Driver/Src/stm32f0xx_hal_pcd.c ****             HAL_PCD_DataOutStageCallback(hpcd, 0U);
1751:Drivers/STM32F0xx_HAL_Driver/Src/stm32f0xx_hal_pcd.c **** #endif /* USE_HAL_PCD_REGISTER_CALLBACKS */
1752:Drivers/STM32F0xx_HAL_Driver/Src/stm32f0xx_hal_pcd.c ****           }
1753:Drivers/STM32F0xx_HAL_Driver/Src/stm32f0xx_hal_pcd.c **** 
1754:Drivers/STM32F0xx_HAL_Driver/Src/stm32f0xx_hal_pcd.c ****           PCD_SET_EP_RX_CNT(hpcd->Instance, PCD_ENDP0, ep->maxpacket);
1755:Drivers/STM32F0xx_HAL_Driver/Src/stm32f0xx_hal_pcd.c ****           PCD_SET_EP_RX_STATUS(hpcd->Instance, PCD_ENDP0, USB_EP_RX_VALID);
1756:Drivers/STM32F0xx_HAL_Driver/Src/stm32f0xx_hal_pcd.c ****         }
1757:Drivers/STM32F0xx_HAL_Driver/Src/stm32f0xx_hal_pcd.c ****       }
1758:Drivers/STM32F0xx_HAL_Driver/Src/stm32f0xx_hal_pcd.c ****     }
ARM GAS  /tmp/ccTcoz65.s 			page 61


1759:Drivers/STM32F0xx_HAL_Driver/Src/stm32f0xx_hal_pcd.c ****     else
1760:Drivers/STM32F0xx_HAL_Driver/Src/stm32f0xx_hal_pcd.c ****     {
1761:Drivers/STM32F0xx_HAL_Driver/Src/stm32f0xx_hal_pcd.c ****       /* Decode and service non control endpoints interrupt  */
1762:Drivers/STM32F0xx_HAL_Driver/Src/stm32f0xx_hal_pcd.c **** 
1763:Drivers/STM32F0xx_HAL_Driver/Src/stm32f0xx_hal_pcd.c ****       /* process related endpoint register */
1764:Drivers/STM32F0xx_HAL_Driver/Src/stm32f0xx_hal_pcd.c ****       wEPVal = PCD_GET_ENDPOINT(hpcd->Instance, epindex);
1765:Drivers/STM32F0xx_HAL_Driver/Src/stm32f0xx_hal_pcd.c ****       if ((wEPVal & USB_EP_CTR_RX) != 0U)
1766:Drivers/STM32F0xx_HAL_Driver/Src/stm32f0xx_hal_pcd.c ****       {
1767:Drivers/STM32F0xx_HAL_Driver/Src/stm32f0xx_hal_pcd.c ****         /* clear int flag */
1768:Drivers/STM32F0xx_HAL_Driver/Src/stm32f0xx_hal_pcd.c ****         PCD_CLEAR_RX_EP_CTR(hpcd->Instance, epindex);
1769:Drivers/STM32F0xx_HAL_Driver/Src/stm32f0xx_hal_pcd.c ****         ep = &hpcd->OUT_ep[epindex];
1770:Drivers/STM32F0xx_HAL_Driver/Src/stm32f0xx_hal_pcd.c **** 
1771:Drivers/STM32F0xx_HAL_Driver/Src/stm32f0xx_hal_pcd.c ****         /* OUT double Buffering*/
1772:Drivers/STM32F0xx_HAL_Driver/Src/stm32f0xx_hal_pcd.c ****         if (ep->doublebuffer == 0U)
1773:Drivers/STM32F0xx_HAL_Driver/Src/stm32f0xx_hal_pcd.c ****         {
1774:Drivers/STM32F0xx_HAL_Driver/Src/stm32f0xx_hal_pcd.c ****           count = (uint16_t)PCD_GET_EP_RX_CNT(hpcd->Instance, ep->num);
1775:Drivers/STM32F0xx_HAL_Driver/Src/stm32f0xx_hal_pcd.c ****           if (count != 0U)
1776:Drivers/STM32F0xx_HAL_Driver/Src/stm32f0xx_hal_pcd.c ****           {
1777:Drivers/STM32F0xx_HAL_Driver/Src/stm32f0xx_hal_pcd.c ****             USB_ReadPMA(hpcd->Instance, ep->xfer_buff, ep->pmaadress, count);
1778:Drivers/STM32F0xx_HAL_Driver/Src/stm32f0xx_hal_pcd.c ****           }
1779:Drivers/STM32F0xx_HAL_Driver/Src/stm32f0xx_hal_pcd.c ****         }
1780:Drivers/STM32F0xx_HAL_Driver/Src/stm32f0xx_hal_pcd.c ****         else
1781:Drivers/STM32F0xx_HAL_Driver/Src/stm32f0xx_hal_pcd.c ****         {
1782:Drivers/STM32F0xx_HAL_Driver/Src/stm32f0xx_hal_pcd.c ****           if ((PCD_GET_ENDPOINT(hpcd->Instance, ep->num) & USB_EP_DTOG_RX) != 0U)
1783:Drivers/STM32F0xx_HAL_Driver/Src/stm32f0xx_hal_pcd.c ****           {
1784:Drivers/STM32F0xx_HAL_Driver/Src/stm32f0xx_hal_pcd.c ****             /*read from endpoint BUF0Addr buffer*/
1785:Drivers/STM32F0xx_HAL_Driver/Src/stm32f0xx_hal_pcd.c ****             count = (uint16_t)PCD_GET_EP_DBUF0_CNT(hpcd->Instance, ep->num);
1786:Drivers/STM32F0xx_HAL_Driver/Src/stm32f0xx_hal_pcd.c ****             if (count != 0U)
1787:Drivers/STM32F0xx_HAL_Driver/Src/stm32f0xx_hal_pcd.c ****             {
1788:Drivers/STM32F0xx_HAL_Driver/Src/stm32f0xx_hal_pcd.c ****               USB_ReadPMA(hpcd->Instance, ep->xfer_buff, ep->pmaaddr0, count);
1789:Drivers/STM32F0xx_HAL_Driver/Src/stm32f0xx_hal_pcd.c ****             }
1790:Drivers/STM32F0xx_HAL_Driver/Src/stm32f0xx_hal_pcd.c ****           }
1791:Drivers/STM32F0xx_HAL_Driver/Src/stm32f0xx_hal_pcd.c ****           else
1792:Drivers/STM32F0xx_HAL_Driver/Src/stm32f0xx_hal_pcd.c ****           {
1793:Drivers/STM32F0xx_HAL_Driver/Src/stm32f0xx_hal_pcd.c ****             /*read from endpoint BUF1Addr buffer*/
1794:Drivers/STM32F0xx_HAL_Driver/Src/stm32f0xx_hal_pcd.c ****             count = (uint16_t)PCD_GET_EP_DBUF1_CNT(hpcd->Instance, ep->num);
1795:Drivers/STM32F0xx_HAL_Driver/Src/stm32f0xx_hal_pcd.c ****             if (count != 0U)
1796:Drivers/STM32F0xx_HAL_Driver/Src/stm32f0xx_hal_pcd.c ****             {
1797:Drivers/STM32F0xx_HAL_Driver/Src/stm32f0xx_hal_pcd.c ****               USB_ReadPMA(hpcd->Instance, ep->xfer_buff, ep->pmaaddr1, count);
1798:Drivers/STM32F0xx_HAL_Driver/Src/stm32f0xx_hal_pcd.c ****             }
1799:Drivers/STM32F0xx_HAL_Driver/Src/stm32f0xx_hal_pcd.c ****           }
1800:Drivers/STM32F0xx_HAL_Driver/Src/stm32f0xx_hal_pcd.c ****           /* free EP OUT Buffer */
1801:Drivers/STM32F0xx_HAL_Driver/Src/stm32f0xx_hal_pcd.c ****           PCD_FreeUserBuffer(hpcd->Instance, ep->num, 0U);
1802:Drivers/STM32F0xx_HAL_Driver/Src/stm32f0xx_hal_pcd.c ****         }
1803:Drivers/STM32F0xx_HAL_Driver/Src/stm32f0xx_hal_pcd.c ****         /*multi-packet on the NON control OUT endpoint*/
1804:Drivers/STM32F0xx_HAL_Driver/Src/stm32f0xx_hal_pcd.c ****         ep->xfer_count += count;
1805:Drivers/STM32F0xx_HAL_Driver/Src/stm32f0xx_hal_pcd.c ****         ep->xfer_buff += count;
1806:Drivers/STM32F0xx_HAL_Driver/Src/stm32f0xx_hal_pcd.c **** 
1807:Drivers/STM32F0xx_HAL_Driver/Src/stm32f0xx_hal_pcd.c ****         if ((ep->xfer_len == 0U) || (count < ep->maxpacket))
1808:Drivers/STM32F0xx_HAL_Driver/Src/stm32f0xx_hal_pcd.c ****         {
1809:Drivers/STM32F0xx_HAL_Driver/Src/stm32f0xx_hal_pcd.c ****           /* RX COMPLETE */
1810:Drivers/STM32F0xx_HAL_Driver/Src/stm32f0xx_hal_pcd.c **** #if (USE_HAL_PCD_REGISTER_CALLBACKS == 1U)
1811:Drivers/STM32F0xx_HAL_Driver/Src/stm32f0xx_hal_pcd.c ****           hpcd->DataOutStageCallback(hpcd, ep->num);
1812:Drivers/STM32F0xx_HAL_Driver/Src/stm32f0xx_hal_pcd.c **** #else
1813:Drivers/STM32F0xx_HAL_Driver/Src/stm32f0xx_hal_pcd.c ****           HAL_PCD_DataOutStageCallback(hpcd, ep->num);
1814:Drivers/STM32F0xx_HAL_Driver/Src/stm32f0xx_hal_pcd.c **** #endif /* USE_HAL_PCD_REGISTER_CALLBACKS */
1815:Drivers/STM32F0xx_HAL_Driver/Src/stm32f0xx_hal_pcd.c ****         }
ARM GAS  /tmp/ccTcoz65.s 			page 62


1816:Drivers/STM32F0xx_HAL_Driver/Src/stm32f0xx_hal_pcd.c ****         else
1817:Drivers/STM32F0xx_HAL_Driver/Src/stm32f0xx_hal_pcd.c ****         {
1818:Drivers/STM32F0xx_HAL_Driver/Src/stm32f0xx_hal_pcd.c ****           (void)HAL_PCD_EP_Receive(hpcd, ep->num, ep->xfer_buff, ep->xfer_len);
1819:Drivers/STM32F0xx_HAL_Driver/Src/stm32f0xx_hal_pcd.c ****         }
1820:Drivers/STM32F0xx_HAL_Driver/Src/stm32f0xx_hal_pcd.c **** 
1821:Drivers/STM32F0xx_HAL_Driver/Src/stm32f0xx_hal_pcd.c ****       } /* if((wEPVal & EP_CTR_RX) */
1822:Drivers/STM32F0xx_HAL_Driver/Src/stm32f0xx_hal_pcd.c **** 
1823:Drivers/STM32F0xx_HAL_Driver/Src/stm32f0xx_hal_pcd.c ****       if ((wEPVal & USB_EP_CTR_TX) != 0U)
 1578              		.loc 1 1823 0
 1579 01b2 7133     		adds	r3, r3, #113
1668:Drivers/STM32F0xx_HAL_Driver/Src/stm32f0xx_hal_pcd.c ****   {
 1580              		.loc 1 1668 0
 1581 01b4 4427     		movs	r7, #68
 1582              		.loc 1 1823 0
 1583 01b6 9B46     		mov	fp, r3
 1584 01b8 2068     		ldr	r0, [r4]
 1585              	.L87:
1668:Drivers/STM32F0xx_HAL_Driver/Src/stm32f0xx_hal_pcd.c ****   {
 1586              		.loc 1 1668 0
 1587 01ba C35B     		ldrh	r3, [r0, r7]
 1588 01bc 1BB2     		sxth	r3, r3
 1589 01be 002B     		cmp	r3, #0
 1590 01c0 00DB     		blt	.LCB1353
 1591 01c2 2CE7     		b	.L86	@long jump
 1592              	.LCB1353:
1672:Drivers/STM32F0xx_HAL_Driver/Src/stm32f0xx_hal_pcd.c **** 
 1593              		.loc 1 1672 0
 1594 01c4 5546     		mov	r5, r10
1670:Drivers/STM32F0xx_HAL_Driver/Src/stm32f0xx_hal_pcd.c ****     /* extract highest priority endpoint number */
 1595              		.loc 1 1670 0
 1596 01c6 C35B     		ldrh	r3, [r0, r7]
 1597 01c8 9BB2     		uxth	r3, r3
 1598              	.LVL130:
1672:Drivers/STM32F0xx_HAL_Driver/Src/stm32f0xx_hal_pcd.c **** 
 1599              		.loc 1 1672 0
 1600 01ca 1D40     		ands	r5, r3
 1601              	.LVL131:
1674:Drivers/STM32F0xx_HAL_Driver/Src/stm32f0xx_hal_pcd.c ****     {
 1602              		.loc 1 1674 0
 1603 01cc 4CD1     		bne	.L88
1679:Drivers/STM32F0xx_HAL_Driver/Src/stm32f0xx_hal_pcd.c ****       {
 1604              		.loc 1 1679 0
 1605 01ce DB06     		lsls	r3, r3, #27
 1606 01d0 00D4     		bmi	.LCB1367
 1607 01d2 7BE0     		b	.L167	@long jump
 1608              	.LCB1367:
 1609              	.LVL132:
1711:Drivers/STM32F0xx_HAL_Driver/Src/stm32f0xx_hal_pcd.c **** 
 1610              		.loc 1 1711 0
 1611 01d4 0388     		ldrh	r3, [r0]
 1612 01d6 9BB2     		uxth	r3, r3
 1613              	.LVL133:
1713:Drivers/STM32F0xx_HAL_Driver/Src/stm32f0xx_hal_pcd.c ****         {
 1614              		.loc 1 1713 0
 1615 01d8 1A05     		lsls	r2, r3, #20
 1616 01da 00D5     		bpl	.LCB1377
 1617 01dc 22E1     		b	.L168	@long jump
ARM GAS  /tmp/ccTcoz65.s 			page 63


 1618              	.LCB1377:
1732:Drivers/STM32F0xx_HAL_Driver/Src/stm32f0xx_hal_pcd.c ****         {
 1619              		.loc 1 1732 0
 1620 01de 1BB2     		sxth	r3, r3
 1621 01e0 002B     		cmp	r3, #0
 1622 01e2 EADA     		bge	.L87
 1623              	.LBB51:
1734:Drivers/STM32F0xx_HAL_Driver/Src/stm32f0xx_hal_pcd.c **** 
 1624              		.loc 1 1734 0
 1625 01e4 0288     		ldrh	r2, [r0]
 1626              	.LVL134:
 1627 01e6 854B     		ldr	r3, .L172+28
 1628              	.LVL135:
 1629              	.LBE51:
1737:Drivers/STM32F0xx_HAL_Driver/Src/stm32f0xx_hal_pcd.c **** 
 1630              		.loc 1 1737 0
 1631 01e8 2500     		movs	r5, r4
 1632              	.LVL136:
 1633              	.LBB52:
1734:Drivers/STM32F0xx_HAL_Driver/Src/stm32f0xx_hal_pcd.c **** 
 1634              		.loc 1 1734 0
 1635 01ea 1340     		ands	r3, r2
 1636 01ec 8022     		movs	r2, #128
 1637              	.LVL137:
 1638 01ee 1343     		orrs	r3, r2
 1639 01f0 0380     		strh	r3, [r0]
 1640              	.LBE52:
1737:Drivers/STM32F0xx_HAL_Driver/Src/stm32f0xx_hal_pcd.c **** 
 1641              		.loc 1 1737 0
 1642 01f2 5023     		movs	r3, #80
 1643 01f4 C25A     		ldrh	r2, [r0, r3]
 1644 01f6 D833     		adds	r3, r3, #216
 1645 01f8 E35C     		ldrb	r3, [r4, r3]
 1646 01fa 2935     		adds	r5, r5, #41
 1647 01fc DB00     		lsls	r3, r3, #3
 1648 01fe 9B18     		adds	r3, r3, r2
 1649 0200 7F4A     		ldr	r2, .L172+32
 1650 0202 1B18     		adds	r3, r3, r0
 1651 0204 9446     		mov	ip, r2
 1652 0206 6344     		add	r3, r3, ip
 1653 0208 1B88     		ldrh	r3, [r3]
 1654 020a FF35     		adds	r5, r5, #255
 1655 020c 9B05     		lsls	r3, r3, #22
 1656 020e 9B0D     		lsrs	r3, r3, #22
 1657 0210 EB61     		str	r3, [r5, #28]
1739:Drivers/STM32F0xx_HAL_Driver/Src/stm32f0xx_hal_pcd.c ****           {
 1658              		.loc 1 1739 0
 1659 0212 0FD0     		beq	.L94
 1660 0214 6969     		ldr	r1, [r5, #20]
 1661 0216 0029     		cmp	r1, #0
 1662 0218 0CD0     		beq	.L94
1741:Drivers/STM32F0xx_HAL_Driver/Src/stm32f0xx_hal_pcd.c ****                         ep->pmaadress, (uint16_t)ep->xfer_count);
 1663              		.loc 1 1741 0
 1664 021a EA88     		ldrh	r2, [r5, #6]
 1665 021c FFF7FEFF 		bl	USB_ReadPMA
 1666              	.LVL138:
1744:Drivers/STM32F0xx_HAL_Driver/Src/stm32f0xx_hal_pcd.c **** 
ARM GAS  /tmp/ccTcoz65.s 			page 64


 1667              		.loc 1 1744 0
 1668 0220 EA69     		ldr	r2, [r5, #28]
 1669 0222 6B69     		ldr	r3, [r5, #20]
 1670 0224 9446     		mov	ip, r2
 1671 0226 6344     		add	r3, r3, ip
1750:Drivers/STM32F0xx_HAL_Driver/Src/stm32f0xx_hal_pcd.c **** #endif /* USE_HAL_PCD_REGISTER_CALLBACKS */
 1672              		.loc 1 1750 0
 1673 0228 2000     		movs	r0, r4
1744:Drivers/STM32F0xx_HAL_Driver/Src/stm32f0xx_hal_pcd.c **** 
 1674              		.loc 1 1744 0
 1675 022a 6B61     		str	r3, [r5, #20]
1750:Drivers/STM32F0xx_HAL_Driver/Src/stm32f0xx_hal_pcd.c **** #endif /* USE_HAL_PCD_REGISTER_CALLBACKS */
 1676              		.loc 1 1750 0
 1677 022c 0021     		movs	r1, #0
 1678 022e FFF7FEFF 		bl	HAL_PCD_DataOutStageCallback
 1679              	.LVL139:
 1680 0232 2068     		ldr	r0, [r4]
 1681              	.L94:
 1682              	.LVL140:
 1683              	.LBB53:
1754:Drivers/STM32F0xx_HAL_Driver/Src/stm32f0xx_hal_pcd.c ****           PCD_SET_EP_RX_STATUS(hpcd->Instance, PCD_ENDP0, USB_EP_RX_VALID);
 1684              		.loc 1 1754 0
 1685 0234 5023     		movs	r3, #80
 1686 0236 C25A     		ldrh	r2, [r0, r3]
 1687              	.LVL141:
 1688 0238 714B     		ldr	r3, .L172+32
 1689 023a 9C46     		mov	ip, r3
 1690              	.LBB54:
 1691 023c 2B69     		ldr	r3, [r5, #16]
 1692              	.LBE54:
 1693 023e 6244     		add	r2, r2, ip
 1694              	.LVL142:
 1695 0240 8218     		adds	r2, r0, r2
 1696              	.LVL143:
 1697              	.LBB55:
 1698 0242 002B     		cmp	r3, #0
 1699 0244 00D0     		beq	.LCB1457
 1700 0246 34E1     		b	.L95	@long jump
 1701              	.LCB1457:
 1702 0248 1188     		ldrh	r1, [r2]
 1703 024a 6E4B     		ldr	r3, .L172+36
 1704 024c 0B40     		ands	r3, r1
 1705 024e 6E49     		ldr	r1, .L172+40
 1706 0250 0B43     		orrs	r3, r1
 1707 0252 1380     		strh	r3, [r2]
 1708              	.L96:
 1709              	.LBE55:
 1710              	.LBE53:
 1711              	.LBB58:
1755:Drivers/STM32F0xx_HAL_Driver/Src/stm32f0xx_hal_pcd.c ****         }
 1712              		.loc 1 1755 0
 1713 0254 0288     		ldrh	r2, [r0]
 1714              	.LVL144:
 1715 0256 6D4B     		ldr	r3, .L172+44
 1716 0258 1340     		ands	r3, r2
 1717              	.LVL145:
 1718 025a C022     		movs	r2, #192
ARM GAS  /tmp/ccTcoz65.s 			page 65


 1719 025c 9201     		lsls	r2, r2, #6
 1720 025e 5340     		eors	r3, r2
 1721              	.LVL146:
 1722 0260 6B4A     		ldr	r2, .L172+48
 1723 0262 1343     		orrs	r3, r2
 1724              	.LVL147:
 1725 0264 0380     		strh	r3, [r0]
 1726 0266 A8E7     		b	.L87
 1727              	.LVL148:
 1728              	.L88:
 1729              	.LBE58:
1764:Drivers/STM32F0xx_HAL_Driver/Src/stm32f0xx_hal_pcd.c ****       if ((wEPVal & USB_EP_CTR_RX) != 0U)
 1730              		.loc 1 1764 0
 1731 0268 AB00     		lsls	r3, r5, #2
 1732              	.LVL149:
 1733 026a 9846     		mov	r8, r3
 1734 026c C318     		adds	r3, r0, r3
 1735 026e 1E88     		ldrh	r6, [r3]
 1736 0270 B6B2     		uxth	r6, r6
 1737              	.LVL150:
1765:Drivers/STM32F0xx_HAL_Driver/Src/stm32f0xx_hal_pcd.c ****       {
 1738              		.loc 1 1765 0
 1739 0272 32B2     		sxth	r2, r6
 1740 0274 002A     		cmp	r2, #0
 1741 0276 59DB     		blt	.L169
 1742              	.L100:
 1743              		.loc 1 1823 0
 1744 0278 5B46     		mov	r3, fp
 1745 027a 3342     		tst	r3, r6
 1746 027c 9DD0     		beq	.L87
 1747              	.LVL151:
 1748              	.LBB59:
1824:Drivers/STM32F0xx_HAL_Driver/Src/stm32f0xx_hal_pcd.c ****       {
1825:Drivers/STM32F0xx_HAL_Driver/Src/stm32f0xx_hal_pcd.c ****         ep = &hpcd->IN_ep[epindex];
1826:Drivers/STM32F0xx_HAL_Driver/Src/stm32f0xx_hal_pcd.c **** 
1827:Drivers/STM32F0xx_HAL_Driver/Src/stm32f0xx_hal_pcd.c ****         /* clear int flag */
1828:Drivers/STM32F0xx_HAL_Driver/Src/stm32f0xx_hal_pcd.c ****         PCD_CLEAR_TX_EP_CTR(hpcd->Instance, epindex);
 1749              		.loc 1 1828 0
 1750 027e 4346     		mov	r3, r8
 1751 0280 C318     		adds	r3, r0, r3
 1752 0282 1988     		ldrh	r1, [r3]
 1753              	.LVL152:
 1754 0284 634A     		ldr	r2, .L172+52
 1755              	.LBE59:
1829:Drivers/STM32F0xx_HAL_Driver/Src/stm32f0xx_hal_pcd.c **** 
1830:Drivers/STM32F0xx_HAL_Driver/Src/stm32f0xx_hal_pcd.c ****         /*multi-packet on the NON control IN endpoint*/
1831:Drivers/STM32F0xx_HAL_Driver/Src/stm32f0xx_hal_pcd.c ****         ep->xfer_count = PCD_GET_EP_TX_CNT(hpcd->Instance, ep->num);
 1756              		.loc 1 1831 0
 1757 0286 6D01     		lsls	r5, r5, #5
 1758              	.LVL153:
 1759              	.LBB60:
1828:Drivers/STM32F0xx_HAL_Driver/Src/stm32f0xx_hal_pcd.c **** 
 1760              		.loc 1 1828 0
 1761 0288 0A40     		ands	r2, r1
 1762 028a 8021     		movs	r1, #128
 1763              	.LVL154:
 1764              	.LBE60:
ARM GAS  /tmp/ccTcoz65.s 			page 66


 1765              		.loc 1 1831 0
 1766 028c 6519     		adds	r5, r4, r5
 1767              	.LBB61:
1828:Drivers/STM32F0xx_HAL_Driver/Src/stm32f0xx_hal_pcd.c **** 
 1768              		.loc 1 1828 0
 1769 028e 0902     		lsls	r1, r1, #8
 1770 0290 0A43     		orrs	r2, r1
 1771              	.LBE61:
 1772              		.loc 1 1831 0
 1773 0292 2900     		movs	r1, r5
 1774              	.LBB62:
1828:Drivers/STM32F0xx_HAL_Driver/Src/stm32f0xx_hal_pcd.c **** 
 1775              		.loc 1 1828 0
 1776 0294 1A80     		strh	r2, [r3]
 1777              	.LBE62:
 1778              		.loc 1 1831 0
 1779 0296 5023     		movs	r3, #80
 1780 0298 2831     		adds	r1, r1, #40
 1781              	.LVL155:
 1782 029a 0A78     		ldrb	r2, [r1]
 1783 029c C35A     		ldrh	r3, [r0, r3]
 1784 029e D200     		lsls	r2, r2, #3
 1785 02a0 8018     		adds	r0, r0, r2
 1786 02a2 C018     		adds	r0, r0, r3
 1787 02a4 5C4B     		ldr	r3, .L172+56
 1788 02a6 9C46     		mov	ip, r3
1832:Drivers/STM32F0xx_HAL_Driver/Src/stm32f0xx_hal_pcd.c ****         ep->xfer_buff += ep->xfer_count;
 1789              		.loc 1 1832 0
 1790 02a8 EB6B     		ldr	r3, [r5, #60]
1831:Drivers/STM32F0xx_HAL_Driver/Src/stm32f0xx_hal_pcd.c ****         ep->xfer_buff += ep->xfer_count;
 1791              		.loc 1 1831 0
 1792 02aa 6044     		add	r0, r0, ip
 1793              		.loc 1 1832 0
 1794 02ac 9C46     		mov	ip, r3
1831:Drivers/STM32F0xx_HAL_Driver/Src/stm32f0xx_hal_pcd.c ****         ep->xfer_buff += ep->xfer_count;
 1795              		.loc 1 1831 0
 1796 02ae 0288     		ldrh	r2, [r0]
1833:Drivers/STM32F0xx_HAL_Driver/Src/stm32f0xx_hal_pcd.c **** 
1834:Drivers/STM32F0xx_HAL_Driver/Src/stm32f0xx_hal_pcd.c ****         /* Zero Length Packet? */
1835:Drivers/STM32F0xx_HAL_Driver/Src/stm32f0xx_hal_pcd.c ****         if (ep->xfer_len == 0U)
 1797              		.loc 1 1835 0
 1798 02b0 2B6C     		ldr	r3, [r5, #64]
1831:Drivers/STM32F0xx_HAL_Driver/Src/stm32f0xx_hal_pcd.c ****         ep->xfer_buff += ep->xfer_count;
 1799              		.loc 1 1831 0
 1800 02b2 9205     		lsls	r2, r2, #22
 1801 02b4 920D     		lsrs	r2, r2, #22
 1802 02b6 6A64     		str	r2, [r5, #68]
1832:Drivers/STM32F0xx_HAL_Driver/Src/stm32f0xx_hal_pcd.c **** 
 1803              		.loc 1 1832 0
 1804 02b8 6244     		add	r2, r2, ip
 1805 02ba EA63     		str	r2, [r5, #60]
1836:Drivers/STM32F0xx_HAL_Driver/Src/stm32f0xx_hal_pcd.c ****         {
1837:Drivers/STM32F0xx_HAL_Driver/Src/stm32f0xx_hal_pcd.c ****           /* TX COMPLETE */
1838:Drivers/STM32F0xx_HAL_Driver/Src/stm32f0xx_hal_pcd.c **** #if (USE_HAL_PCD_REGISTER_CALLBACKS == 1U)
1839:Drivers/STM32F0xx_HAL_Driver/Src/stm32f0xx_hal_pcd.c ****           hpcd->DataInStageCallback(hpcd, ep->num);
1840:Drivers/STM32F0xx_HAL_Driver/Src/stm32f0xx_hal_pcd.c **** #else
1841:Drivers/STM32F0xx_HAL_Driver/Src/stm32f0xx_hal_pcd.c ****           HAL_PCD_DataInStageCallback(hpcd, ep->num);
ARM GAS  /tmp/ccTcoz65.s 			page 67


 1806              		.loc 1 1841 0
 1807 02bc 0978     		ldrb	r1, [r1]
 1808              	.LVL156:
 1809 02be 2000     		movs	r0, r4
1835:Drivers/STM32F0xx_HAL_Driver/Src/stm32f0xx_hal_pcd.c ****         {
 1810              		.loc 1 1835 0
 1811 02c0 002B     		cmp	r3, #0
 1812 02c2 2FD1     		bne	.L107
 1813              	.LVL157:
 1814              		.loc 1 1841 0
 1815 02c4 FFF7FEFF 		bl	HAL_PCD_DataInStageCallback
 1816              	.LVL158:
 1817 02c8 2068     		ldr	r0, [r4]
 1818 02ca 76E7     		b	.L87
 1819              	.LVL159:
 1820              	.L167:
 1821              	.LBB63:
1685:Drivers/STM32F0xx_HAL_Driver/Src/stm32f0xx_hal_pcd.c ****         ep = &hpcd->IN_ep[0];
 1822              		.loc 1 1685 0
 1823 02cc 0288     		ldrh	r2, [r0]
 1824              	.LVL160:
 1825 02ce 514B     		ldr	r3, .L172+52
 1826              	.LBE63:
1695:Drivers/STM32F0xx_HAL_Driver/Src/stm32f0xx_hal_pcd.c **** #endif /* USE_HAL_PCD_REGISTER_CALLBACKS */
 1827              		.loc 1 1695 0
 1828 02d0 0021     		movs	r1, #0
 1829              	.LBB64:
1685:Drivers/STM32F0xx_HAL_Driver/Src/stm32f0xx_hal_pcd.c ****         ep = &hpcd->IN_ep[0];
 1830              		.loc 1 1685 0
 1831 02d2 1340     		ands	r3, r2
 1832 02d4 8022     		movs	r2, #128
 1833              	.LVL161:
 1834 02d6 1202     		lsls	r2, r2, #8
 1835 02d8 1343     		orrs	r3, r2
 1836              	.LBE64:
1688:Drivers/STM32F0xx_HAL_Driver/Src/stm32f0xx_hal_pcd.c ****         ep->xfer_buff += ep->xfer_count;
 1837              		.loc 1 1688 0
 1838 02da 2822     		movs	r2, #40
 1839              	.LBB65:
1685:Drivers/STM32F0xx_HAL_Driver/Src/stm32f0xx_hal_pcd.c ****         ep = &hpcd->IN_ep[0];
 1840              		.loc 1 1685 0
 1841 02dc 0380     		strh	r3, [r0]
 1842              	.LVL162:
 1843              	.LBE65:
1688:Drivers/STM32F0xx_HAL_Driver/Src/stm32f0xx_hal_pcd.c ****         ep->xfer_buff += ep->xfer_count;
 1844              		.loc 1 1688 0
 1845 02de 5023     		movs	r3, #80
 1846 02e0 A25C     		ldrb	r2, [r4, r2]
 1847 02e2 C35A     		ldrh	r3, [r0, r3]
 1848 02e4 D200     		lsls	r2, r2, #3
 1849 02e6 8018     		adds	r0, r0, r2
 1850 02e8 C018     		adds	r0, r0, r3
 1851 02ea 4B4B     		ldr	r3, .L172+56
1689:Drivers/STM32F0xx_HAL_Driver/Src/stm32f0xx_hal_pcd.c **** 
 1852              		.loc 1 1689 0
 1853 02ec E26B     		ldr	r2, [r4, #60]
1688:Drivers/STM32F0xx_HAL_Driver/Src/stm32f0xx_hal_pcd.c ****         ep->xfer_buff += ep->xfer_count;
ARM GAS  /tmp/ccTcoz65.s 			page 68


 1854              		.loc 1 1688 0
 1855 02ee 9C46     		mov	ip, r3
 1856 02f0 6044     		add	r0, r0, ip
1689:Drivers/STM32F0xx_HAL_Driver/Src/stm32f0xx_hal_pcd.c **** 
 1857              		.loc 1 1689 0
 1858 02f2 9446     		mov	ip, r2
1688:Drivers/STM32F0xx_HAL_Driver/Src/stm32f0xx_hal_pcd.c ****         ep->xfer_buff += ep->xfer_count;
 1859              		.loc 1 1688 0
 1860 02f4 0388     		ldrh	r3, [r0]
1695:Drivers/STM32F0xx_HAL_Driver/Src/stm32f0xx_hal_pcd.c **** #endif /* USE_HAL_PCD_REGISTER_CALLBACKS */
 1861              		.loc 1 1695 0
 1862 02f6 2000     		movs	r0, r4
1688:Drivers/STM32F0xx_HAL_Driver/Src/stm32f0xx_hal_pcd.c ****         ep->xfer_buff += ep->xfer_count;
 1863              		.loc 1 1688 0
 1864 02f8 9B05     		lsls	r3, r3, #22
 1865 02fa 9B0D     		lsrs	r3, r3, #22
 1866 02fc 6364     		str	r3, [r4, #68]
1689:Drivers/STM32F0xx_HAL_Driver/Src/stm32f0xx_hal_pcd.c **** 
 1867              		.loc 1 1689 0
 1868 02fe 6344     		add	r3, r3, ip
 1869 0300 E363     		str	r3, [r4, #60]
1695:Drivers/STM32F0xx_HAL_Driver/Src/stm32f0xx_hal_pcd.c **** #endif /* USE_HAL_PCD_REGISTER_CALLBACKS */
 1870              		.loc 1 1695 0
 1871 0302 FFF7FEFF 		bl	HAL_PCD_DataInStageCallback
 1872              	.LVL163:
1698:Drivers/STM32F0xx_HAL_Driver/Src/stm32f0xx_hal_pcd.c ****         {
 1873              		.loc 1 1698 0
 1874 0306 2423     		movs	r3, #36
 1875 0308 E25C     		ldrb	r2, [r4, r3]
 1876 030a 002A     		cmp	r2, #0
 1877 030c 0CD0     		beq	.L162
 1878 030e 226C     		ldr	r2, [r4, #64]
 1879 0310 002A     		cmp	r2, #0
 1880 0312 09D1     		bne	.L162
1700:Drivers/STM32F0xx_HAL_Driver/Src/stm32f0xx_hal_pcd.c ****           hpcd->USB_Address = 0U;
 1881              		.loc 1 1700 0
 1882 0314 8021     		movs	r1, #128
 1883 0316 E55C     		ldrb	r5, [r4, r3]
 1884              	.LVL164:
 1885 0318 2068     		ldr	r0, [r4]
 1886 031a 2943     		orrs	r1, r5
 1887 031c 4C25     		movs	r5, #76
 1888 031e 4153     		strh	r1, [r0, r5]
1701:Drivers/STM32F0xx_HAL_Driver/Src/stm32f0xx_hal_pcd.c ****         }
 1889              		.loc 1 1701 0
 1890 0320 E254     		strb	r2, [r4, r3]
 1891 0322 4AE7     		b	.L87
 1892              	.LVL165:
 1893              	.L107:
1842:Drivers/STM32F0xx_HAL_Driver/Src/stm32f0xx_hal_pcd.c **** #endif /* USE_HAL_PCD_REGISTER_CALLBACKS */
1843:Drivers/STM32F0xx_HAL_Driver/Src/stm32f0xx_hal_pcd.c ****         }
1844:Drivers/STM32F0xx_HAL_Driver/Src/stm32f0xx_hal_pcd.c ****         else
1845:Drivers/STM32F0xx_HAL_Driver/Src/stm32f0xx_hal_pcd.c ****         {
1846:Drivers/STM32F0xx_HAL_Driver/Src/stm32f0xx_hal_pcd.c ****           (void)HAL_PCD_EP_Transmit(hpcd, ep->num, ep->xfer_buff, ep->xfer_len);
 1894              		.loc 1 1846 0
 1895 0324 FFF7FEFF 		bl	HAL_PCD_EP_Transmit
 1896              	.LVL166:
ARM GAS  /tmp/ccTcoz65.s 			page 69


 1897              	.L162:
 1898 0328 2068     		ldr	r0, [r4]
 1899 032a 46E7     		b	.L87
 1900              	.LVL167:
 1901              	.L169:
 1902              	.LBB66:
1768:Drivers/STM32F0xx_HAL_Driver/Src/stm32f0xx_hal_pcd.c ****         ep = &hpcd->OUT_ep[epindex];
 1903              		.loc 1 1768 0
 1904 032c 1988     		ldrh	r1, [r3]
 1905              	.LVL168:
 1906 032e 334A     		ldr	r2, .L172+28
 1907 0330 0A40     		ands	r2, r1
 1908 0332 8021     		movs	r1, #128
 1909              	.LVL169:
 1910 0334 0A43     		orrs	r2, r1
 1911 0336 1A80     		strh	r2, [r3]
 1912              	.LVL170:
 1913              	.LBE66:
1772:Drivers/STM32F0xx_HAL_Driver/Src/stm32f0xx_hal_pcd.c ****         {
 1914              		.loc 1 1772 0
 1915 0338 6B01     		lsls	r3, r5, #5
 1916 033a 0093     		str	r3, [sp]
 1917 033c E318     		adds	r3, r4, r3
 1918 033e 1A00     		movs	r2, r3
 1919 0340 3532     		adds	r2, r2, #53
 1920 0342 FF32     		adds	r2, r2, #255
 1921 0344 1278     		ldrb	r2, [r2]
 1922 0346 002A     		cmp	r2, #0
 1923 0348 00D1     		bne	.LCB1695
 1924 034a 8EE0     		b	.L170	@long jump
 1925              	.LCB1695:
1782:Drivers/STM32F0xx_HAL_Driver/Src/stm32f0xx_hal_pcd.c ****           {
 1926              		.loc 1 1782 0
 1927 034c 9422     		movs	r2, #148
 1928 034e 5200     		lsls	r2, r2, #1
 1929 0350 9446     		mov	ip, r2
 1930 0352 9C44     		add	ip, ip, r3
 1931 0354 6246     		mov	r2, ip
 1932 0356 0192     		str	r2, [sp, #4]
 1933 0358 1278     		ldrb	r2, [r2]
 1934 035a 9146     		mov	r9, r2
 1935 035c 9200     		lsls	r2, r2, #2
 1936 035e 8218     		adds	r2, r0, r2
 1937 0360 1188     		ldrh	r1, [r2]
 1938 0362 4904     		lsls	r1, r1, #17
 1939 0364 00D4     		bmi	.LCB1712
 1940 0366 ADE0     		b	.L103	@long jump
 1941              	.LCB1712:
1785:Drivers/STM32F0xx_HAL_Driver/Src/stm32f0xx_hal_pcd.c ****             if (count != 0U)
 1942              		.loc 1 1785 0
 1943 0368 5021     		movs	r1, #80
 1944 036a 415A     		ldrh	r1, [r0, r1]
 1945 036c 8C46     		mov	ip, r1
 1946 036e 4946     		mov	r1, r9
 1947 0370 C900     		lsls	r1, r1, #3
 1948 0372 4118     		adds	r1, r0, r1
 1949 0374 6144     		add	r1, r1, ip
ARM GAS  /tmp/ccTcoz65.s 			page 70


 1950 0376 8946     		mov	r9, r1
 1951 0378 2749     		ldr	r1, .L172+56
 1952 037a 8C46     		mov	ip, r1
 1953 037c 4946     		mov	r1, r9
 1954 037e 6144     		add	r1, r1, ip
 1955 0380 0988     		ldrh	r1, [r1]
 1956 0382 8905     		lsls	r1, r1, #22
 1957 0384 890D     		lsrs	r1, r1, #22
 1958 0386 8946     		mov	r9, r1
 1959              	.LVL171:
1786:Drivers/STM32F0xx_HAL_Driver/Src/stm32f0xx_hal_pcd.c ****             {
 1960              		.loc 1 1786 0
 1961 0388 00D0     		beq	.LCB1733
 1962 038a D1E0     		b	.L171	@long jump
 1963              	.LCB1733:
 1964              	.LVL172:
 1965              	.L104:
 1966              	.LBB67:
1801:Drivers/STM32F0xx_HAL_Driver/Src/stm32f0xx_hal_pcd.c ****         }
 1967              		.loc 1 1801 0
 1968 038c 1188     		ldrh	r1, [r2]
 1969              	.LVL173:
 1970 038e 234B     		ldr	r3, .L172+60
 1971 0390 0B40     		ands	r3, r1
 1972 0392 2349     		ldr	r1, .L172+64
 1973              	.LVL174:
 1974 0394 0B43     		orrs	r3, r1
 1975 0396 1380     		strh	r3, [r2]
 1976              	.LVL175:
 1977              	.L102:
 1978              	.LBE67:
1804:Drivers/STM32F0xx_HAL_Driver/Src/stm32f0xx_hal_pcd.c ****         ep->xfer_buff += count;
 1979              		.loc 1 1804 0
 1980 0398 A222     		movs	r2, #162
 1981 039a 009B     		ldr	r3, [sp]
 1982 039c 5200     		lsls	r2, r2, #1
 1983 039e E118     		adds	r1, r4, r3
 1984 03a0 8B58     		ldr	r3, [r1, r2]
 1985 03a2 4B44     		add	r3, r3, r9
 1986 03a4 8B50     		str	r3, [r1, r2]
1805:Drivers/STM32F0xx_HAL_Driver/Src/stm32f0xx_hal_pcd.c **** 
 1987              		.loc 1 1805 0
 1988 03a6 0B00     		movs	r3, r1
 1989 03a8 3D33     		adds	r3, r3, #61
 1990 03aa FF33     		adds	r3, r3, #255
 1991 03ac 1A68     		ldr	r2, [r3]
 1992 03ae 4A44     		add	r2, r2, r9
 1993 03b0 1A60     		str	r2, [r3]
1807:Drivers/STM32F0xx_HAL_Driver/Src/stm32f0xx_hal_pcd.c ****         {
 1994              		.loc 1 1807 0
 1995 03b2 A023     		movs	r3, #160
 1996 03b4 5B00     		lsls	r3, r3, #1
 1997 03b6 CB58     		ldr	r3, [r1, r3]
 1998 03b8 002B     		cmp	r3, #0
 1999 03ba 06D0     		beq	.L105
 2000 03bc 0800     		movs	r0, r1
 2001 03be 3930     		adds	r0, r0, #57
ARM GAS  /tmp/ccTcoz65.s 			page 71


 2002 03c0 FF30     		adds	r0, r0, #255
 2003 03c2 0068     		ldr	r0, [r0]
 2004 03c4 8145     		cmp	r9, r0
 2005 03c6 00D3     		bcc	.LCB1779
 2006 03c8 9FE0     		b	.L106	@long jump
 2007              	.LCB1779:
 2008              	.L105:
1813:Drivers/STM32F0xx_HAL_Driver/Src/stm32f0xx_hal_pcd.c **** #endif /* USE_HAL_PCD_REGISTER_CALLBACKS */
 2009              		.loc 1 1813 0
 2010 03ca 009B     		ldr	r3, [sp]
 2011 03cc 2000     		movs	r0, r4
 2012 03ce E318     		adds	r3, r4, r3
 2013 03d0 2933     		adds	r3, r3, #41
 2014 03d2 FF33     		adds	r3, r3, #255
 2015 03d4 1978     		ldrb	r1, [r3]
 2016 03d6 FFF7FEFF 		bl	HAL_PCD_DataOutStageCallback
 2017              	.LVL176:
 2018 03da 2068     		ldr	r0, [r4]
 2019 03dc 4CE7     		b	.L100
 2020              	.L173:
 2021 03de C046     		.align	2
 2022              	.L172:
 2023 03e0 FFFEFFFF 		.word	-257
 2024 03e4 FFEFFFFF 		.word	-4097
 2025 03e8 FFF7FFFF 		.word	-2049
 2026 03ec FFDFFFFF 		.word	-8193
 2027 03f0 FFBFFFFF 		.word	-16385
 2028 03f4 FFFDFFFF 		.word	-513
 2029 03f8 FFFBFFFF 		.word	-1025
 2030 03fc 8F0F0000 		.word	3983
 2031 0400 06040000 		.word	1030
 2032 0404 FF83FFFF 		.word	-31745
 2033 0408 0080FFFF 		.word	-32768
 2034 040c 8FBFFFFF 		.word	-16497
 2035 0410 80800000 		.word	32896
 2036 0414 0F8FFFFF 		.word	-28913
 2037 0418 02040000 		.word	1026
 2038 041c 8F8FFFFF 		.word	-28785
 2039 0420 C0800000 		.word	32960
 2040              	.LVL177:
 2041              	.L168:
1716:Drivers/STM32F0xx_HAL_Driver/Src/stm32f0xx_hal_pcd.c **** 
 2042              		.loc 1 1716 0
 2043 0424 5023     		movs	r3, #80
 2044              	.LVL178:
 2045 0426 C25A     		ldrh	r2, [r0, r3]
 2046 0428 D833     		adds	r3, r3, #216
 2047 042a E35C     		ldrb	r3, [r4, r3]
1718:Drivers/STM32F0xx_HAL_Driver/Src/stm32f0xx_hal_pcd.c ****                       ep->pmaadress, (uint16_t)ep->xfer_count);
 2048              		.loc 1 1718 0
 2049 042c 8C21     		movs	r1, #140
1716:Drivers/STM32F0xx_HAL_Driver/Src/stm32f0xx_hal_pcd.c **** 
 2050              		.loc 1 1716 0
 2051 042e DB00     		lsls	r3, r3, #3
 2052 0430 C318     		adds	r3, r0, r3
 2053 0432 9B18     		adds	r3, r3, r2
 2054 0434 404A     		ldr	r2, .L174
ARM GAS  /tmp/ccTcoz65.s 			page 72


1718:Drivers/STM32F0xx_HAL_Driver/Src/stm32f0xx_hal_pcd.c ****                       ep->pmaadress, (uint16_t)ep->xfer_count);
 2055              		.loc 1 1718 0
 2056 0436 8900     		lsls	r1, r1, #2
1716:Drivers/STM32F0xx_HAL_Driver/Src/stm32f0xx_hal_pcd.c **** 
 2057              		.loc 1 1716 0
 2058 0438 9446     		mov	ip, r2
 2059 043a 2200     		movs	r2, r4
 2060 043c 6344     		add	r3, r3, ip
 2061 043e 1B88     		ldrh	r3, [r3]
 2062 0440 2932     		adds	r2, r2, #41
 2063 0442 9B05     		lsls	r3, r3, #22
 2064 0444 9B0D     		lsrs	r3, r3, #22
 2065 0446 FF32     		adds	r2, r2, #255
 2066 0448 D361     		str	r3, [r2, #28]
1718:Drivers/STM32F0xx_HAL_Driver/Src/stm32f0xx_hal_pcd.c ****                       ep->pmaadress, (uint16_t)ep->xfer_count);
 2067              		.loc 1 1718 0
 2068 044a 6118     		adds	r1, r4, r1
 2069 044c D288     		ldrh	r2, [r2, #6]
 2070 044e FFF7FEFF 		bl	USB_ReadPMA
 2071              	.LVL179:
 2072              	.LBB68:
1722:Drivers/STM32F0xx_HAL_Driver/Src/stm32f0xx_hal_pcd.c **** 
 2073              		.loc 1 1722 0
 2074 0452 2168     		ldr	r1, [r4]
 2075 0454 394B     		ldr	r3, .L174+4
 2076 0456 0A88     		ldrh	r2, [r1]
 2077              	.LVL180:
 2078              	.LBE68:
1728:Drivers/STM32F0xx_HAL_Driver/Src/stm32f0xx_hal_pcd.c **** #endif /* USE_HAL_PCD_REGISTER_CALLBACKS */
 2079              		.loc 1 1728 0
 2080 0458 2000     		movs	r0, r4
 2081              	.LBB69:
1722:Drivers/STM32F0xx_HAL_Driver/Src/stm32f0xx_hal_pcd.c **** 
 2082              		.loc 1 1722 0
 2083 045a 1340     		ands	r3, r2
 2084 045c 8022     		movs	r2, #128
 2085              	.LVL181:
 2086 045e 1343     		orrs	r3, r2
 2087 0460 0B80     		strh	r3, [r1]
 2088              	.LBE69:
1728:Drivers/STM32F0xx_HAL_Driver/Src/stm32f0xx_hal_pcd.c **** #endif /* USE_HAL_PCD_REGISTER_CALLBACKS */
 2089              		.loc 1 1728 0
 2090 0462 FFF7FEFF 		bl	HAL_PCD_SetupStageCallback
 2091              	.LVL182:
 2092 0466 2068     		ldr	r0, [r4]
 2093 0468 A7E6     		b	.L87
 2094              	.LVL183:
 2095              	.L170:
1774:Drivers/STM32F0xx_HAL_Driver/Src/stm32f0xx_hal_pcd.c ****           if (count != 0U)
 2096              		.loc 1 1774 0
 2097 046a 5032     		adds	r2, r2, #80
 2098 046c 815A     		ldrh	r1, [r0, r2]
 2099 046e 1A00     		movs	r2, r3
 2100 0470 2932     		adds	r2, r2, #41
 2101 0472 FF32     		adds	r2, r2, #255
 2102 0474 1278     		ldrb	r2, [r2]
 2103 0476 D200     		lsls	r2, r2, #3
ARM GAS  /tmp/ccTcoz65.s 			page 73


 2104 0478 8218     		adds	r2, r0, r2
 2105 047a 5218     		adds	r2, r2, r1
 2106 047c 2E49     		ldr	r1, .L174
 2107 047e 8C46     		mov	ip, r1
 2108 0480 6244     		add	r2, r2, ip
 2109 0482 1288     		ldrh	r2, [r2]
 2110 0484 9205     		lsls	r2, r2, #22
 2111 0486 920D     		lsrs	r2, r2, #22
 2112 0488 9146     		mov	r9, r2
 2113              	.LVL184:
1775:Drivers/STM32F0xx_HAL_Driver/Src/stm32f0xx_hal_pcd.c ****           {
 2114              		.loc 1 1775 0
 2115 048a 00D1     		bne	.LCB1895
 2116 048c 84E7     		b	.L102	@long jump
 2117              	.LCB1895:
1777:Drivers/STM32F0xx_HAL_Driver/Src/stm32f0xx_hal_pcd.c ****           }
 2118              		.loc 1 1777 0
 2119 048e 1A00     		movs	r2, r3
 2120              	.LVL185:
 2121 0490 3D33     		adds	r3, r3, #61
 2122 0492 2F32     		adds	r2, r2, #47
 2123 0494 FF33     		adds	r3, r3, #255
 2124 0496 FF32     		adds	r2, r2, #255
 2125 0498 1968     		ldr	r1, [r3]
 2126 049a 1288     		ldrh	r2, [r2]
 2127 049c 4B46     		mov	r3, r9
 2128 049e FFF7FEFF 		bl	USB_ReadPMA
 2129              	.LVL186:
 2130 04a2 79E7     		b	.L102
 2131              	.LVL187:
 2132              	.L166:
 2133              	.LBE50:
 2134              	.LBE49:
1033:Drivers/STM32F0xx_HAL_Driver/Src/stm32f0xx_hal_pcd.c **** #if (USE_HAL_PCD_REGISTER_CALLBACKS == 1U)
 2135              		.loc 1 1033 0
 2136 04a4 0022     		movs	r2, #0
1037:Drivers/STM32F0xx_HAL_Driver/Src/stm32f0xx_hal_pcd.c **** #endif /* USE_HAL_PCD_REGISTER_CALLBACKS */
 2137              		.loc 1 1037 0
 2138 04a6 0021     		movs	r1, #0
1033:Drivers/STM32F0xx_HAL_Driver/Src/stm32f0xx_hal_pcd.c **** #if (USE_HAL_PCD_REGISTER_CALLBACKS == 1U)
 2139              		.loc 1 1033 0
 2140 04a8 E254     		strb	r2, [r4, r3]
1037:Drivers/STM32F0xx_HAL_Driver/Src/stm32f0xx_hal_pcd.c **** #endif /* USE_HAL_PCD_REGISTER_CALLBACKS */
 2141              		.loc 1 1037 0
 2142 04aa 2000     		movs	r0, r4
 2143 04ac FFF7FEFF 		bl	HAL_PCDEx_LPM_Callback
 2144              	.LVL188:
 2145 04b0 1EE6     		b	.L118
 2146              	.LVL189:
 2147              	.L95:
 2148              	.LBB73:
 2149              	.LBB72:
 2150              	.LBB70:
 2151              	.LBB56:
1754:Drivers/STM32F0xx_HAL_Driver/Src/stm32f0xx_hal_pcd.c ****           PCD_SET_EP_RX_STATUS(hpcd->Instance, PCD_ENDP0, USB_EP_RX_VALID);
 2152              		.loc 1 1754 0
 2153 04b2 3E2B     		cmp	r3, #62
ARM GAS  /tmp/ccTcoz65.s 			page 74


 2154 04b4 31D8     		bhi	.L97
 2155 04b6 0125     		movs	r5, #1
 2156 04b8 5908     		lsrs	r1, r3, #1
 2157              	.LVL190:
 2158 04ba 2B40     		ands	r3, r5
 2159 04bc C918     		adds	r1, r1, r3
 2160              	.LVL191:
 2161 04be 8902     		lsls	r1, r1, #10
 2162              	.LVL192:
 2163 04c0 1180     		strh	r1, [r2]
 2164 04c2 C7E6     		b	.L96
 2165              	.LVL193:
 2166              	.L103:
 2167              	.LBE56:
 2168              	.LBE70:
1794:Drivers/STM32F0xx_HAL_Driver/Src/stm32f0xx_hal_pcd.c ****             if (count != 0U)
 2169              		.loc 1 1794 0
 2170 04c4 5021     		movs	r1, #80
 2171 04c6 415A     		ldrh	r1, [r0, r1]
 2172 04c8 8C46     		mov	ip, r1
 2173 04ca 4946     		mov	r1, r9
 2174 04cc C900     		lsls	r1, r1, #3
 2175 04ce 4118     		adds	r1, r0, r1
 2176 04d0 6144     		add	r1, r1, ip
 2177 04d2 8946     		mov	r9, r1
 2178 04d4 1849     		ldr	r1, .L174
 2179 04d6 8C46     		mov	ip, r1
 2180 04d8 4946     		mov	r1, r9
 2181 04da 6144     		add	r1, r1, ip
 2182 04dc 0988     		ldrh	r1, [r1]
 2183 04de 8905     		lsls	r1, r1, #22
 2184 04e0 890D     		lsrs	r1, r1, #22
 2185 04e2 8946     		mov	r9, r1
 2186              	.LVL194:
1795:Drivers/STM32F0xx_HAL_Driver/Src/stm32f0xx_hal_pcd.c ****             {
 2187              		.loc 1 1795 0
 2188 04e4 00D1     		bne	.LCB1990
 2189 04e6 51E7     		b	.L104	@long jump
 2190              	.LCB1990:
1797:Drivers/STM32F0xx_HAL_Driver/Src/stm32f0xx_hal_pcd.c ****             }
 2191              		.loc 1 1797 0
 2192 04e8 1A00     		movs	r2, r3
 2193 04ea 3332     		adds	r2, r2, #51
 2194              	.L161:
 2195 04ec 3D33     		adds	r3, r3, #61
 2196 04ee FF33     		adds	r3, r3, #255
 2197 04f0 FF32     		adds	r2, r2, #255
 2198 04f2 1288     		ldrh	r2, [r2]
 2199 04f4 1968     		ldr	r1, [r3]
 2200              	.LVL195:
 2201 04f6 4B46     		mov	r3, r9
 2202 04f8 FFF7FEFF 		bl	USB_ReadPMA
 2203              	.LVL196:
 2204 04fc 019B     		ldr	r3, [sp, #4]
 2205 04fe 1A78     		ldrb	r2, [r3]
 2206 0500 2368     		ldr	r3, [r4]
 2207 0502 9200     		lsls	r2, r2, #2
ARM GAS  /tmp/ccTcoz65.s 			page 75


 2208 0504 9C46     		mov	ip, r3
 2209 0506 6244     		add	r2, r2, ip
 2210 0508 40E7     		b	.L104
 2211              	.LVL197:
 2212              	.L106:
1818:Drivers/STM32F0xx_HAL_Driver/Src/stm32f0xx_hal_pcd.c ****         }
 2213              		.loc 1 1818 0
 2214 050a 2931     		adds	r1, r1, #41
 2215 050c FF31     		adds	r1, r1, #255
 2216 050e 0978     		ldrb	r1, [r1]
 2217 0510 2000     		movs	r0, r4
 2218 0512 FFF7FEFF 		bl	HAL_PCD_EP_Receive
 2219              	.LVL198:
 2220 0516 2068     		ldr	r0, [r4]
 2221 0518 AEE6     		b	.L100
 2222              	.LVL199:
 2223              	.L97:
 2224              	.LBB71:
 2225              	.LBB57:
1754:Drivers/STM32F0xx_HAL_Driver/Src/stm32f0xx_hal_pcd.c ****           PCD_SET_EP_RX_STATUS(hpcd->Instance, PCD_ENDP0, USB_EP_RX_VALID);
 2226              		.loc 1 1754 0
 2227 051a 1F25     		movs	r5, #31
 2228 051c 1D40     		ands	r5, r3
 2229 051e 5909     		lsrs	r1, r3, #5
 2230              	.LVL200:
 2231 0520 6B42     		rsbs	r3, r5, #0
 2232 0522 6B41     		adcs	r3, r3, r5
 2233 0524 C91A     		subs	r1, r1, r3
 2234              	.LVL201:
 2235 0526 064B     		ldr	r3, .L174+8
 2236 0528 8902     		lsls	r1, r1, #10
 2237              	.LVL202:
 2238 052a 1943     		orrs	r1, r3
 2239 052c 1180     		strh	r1, [r2]
 2240 052e 91E6     		b	.L96
 2241              	.LVL203:
 2242              	.L171:
 2243              	.LBE57:
 2244              	.LBE71:
1788:Drivers/STM32F0xx_HAL_Driver/Src/stm32f0xx_hal_pcd.c ****             }
 2245              		.loc 1 1788 0
 2246 0530 1A00     		movs	r2, r3
 2247 0532 3132     		adds	r2, r2, #49
 2248 0534 DAE7     		b	.L161
 2249              	.L175:
 2250 0536 C046     		.align	2
 2251              	.L174:
 2252 0538 06040000 		.word	1030
 2253 053c 8F0F0000 		.word	3983
 2254 0540 0080FFFF 		.word	-32768
 2255              	.LBE72:
 2256              	.LBE73:
 2257              		.cfi_endproc
 2258              	.LFE46:
 2260              		.section	.text.HAL_PCD_EP_SetStall,"ax",%progbits
 2261              		.align	2
 2262              		.global	HAL_PCD_EP_SetStall
ARM GAS  /tmp/ccTcoz65.s 			page 76


 2263              		.code	16
 2264              		.thumb_func
 2266              	HAL_PCD_EP_SetStall:
 2267              	.LFB66:
1506:Drivers/STM32F0xx_HAL_Driver/Src/stm32f0xx_hal_pcd.c ****   PCD_EPTypeDef *ep;
 2268              		.loc 1 1506 0
 2269              		.cfi_startproc
 2270              		@ args = 0, pretend = 0, frame = 0
 2271              		@ frame_needed = 0, uses_anonymous_args = 0
 2272              	.LVL204:
 2273 0000 70B5     		push	{r4, r5, r6, lr}
 2274              	.LCFI15:
 2275              		.cfi_def_cfa_offset 16
 2276              		.cfi_offset 4, -16
 2277              		.cfi_offset 5, -12
 2278              		.cfi_offset 6, -8
 2279              		.cfi_offset 14, -4
1506:Drivers/STM32F0xx_HAL_Driver/Src/stm32f0xx_hal_pcd.c ****   PCD_EPTypeDef *ep;
 2280              		.loc 1 1506 0
 2281 0002 0500     		movs	r5, r0
 2282 0004 0724     		movs	r4, #7
1509:Drivers/STM32F0xx_HAL_Driver/Src/stm32f0xx_hal_pcd.c ****   {
 2283              		.loc 1 1509 0
 2284 0006 6B68     		ldr	r3, [r5, #4]
 2285 0008 0C40     		ands	r4, r1
1511:Drivers/STM32F0xx_HAL_Driver/Src/stm32f0xx_hal_pcd.c ****   }
 2286              		.loc 1 1511 0
 2287 000a 0120     		movs	r0, #1
 2288              	.LVL205:
1509:Drivers/STM32F0xx_HAL_Driver/Src/stm32f0xx_hal_pcd.c ****   {
 2289              		.loc 1 1509 0
 2290 000c 9C42     		cmp	r4, r3
 2291 000e 22D8     		bhi	.L177
1514:Drivers/STM32F0xx_HAL_Driver/Src/stm32f0xx_hal_pcd.c ****   {
 2292              		.loc 1 1514 0
 2293 0010 4BB2     		sxtb	r3, r1
 2294 0012 002B     		cmp	r3, #0
 2295 0014 20DB     		blt	.L184
1521:Drivers/STM32F0xx_HAL_Driver/Src/stm32f0xx_hal_pcd.c ****     ep->is_in = 0U;
 2296              		.loc 1 1521 0
 2297 0016 4901     		lsls	r1, r1, #5
 2298              	.LVL206:
 2299 0018 0A00     		movs	r2, r1
1522:Drivers/STM32F0xx_HAL_Driver/Src/stm32f0xx_hal_pcd.c ****   }
 2300              		.loc 1 1522 0
 2301 001a 6918     		adds	r1, r5, r1
 2302 001c 0B00     		movs	r3, r1
 2303              	.LVL207:
 2304 001e 0021     		movs	r1, #0
1521:Drivers/STM32F0xx_HAL_Driver/Src/stm32f0xx_hal_pcd.c ****     ep->is_in = 0U;
 2305              		.loc 1 1521 0
 2306 0020 2932     		adds	r2, r2, #41
1522:Drivers/STM32F0xx_HAL_Driver/Src/stm32f0xx_hal_pcd.c ****   }
 2307              		.loc 1 1522 0
 2308 0022 2A33     		adds	r3, r3, #42
1521:Drivers/STM32F0xx_HAL_Driver/Src/stm32f0xx_hal_pcd.c ****     ep->is_in = 0U;
 2309              		.loc 1 1521 0
ARM GAS  /tmp/ccTcoz65.s 			page 77


 2310 0024 FF32     		adds	r2, r2, #255
1522:Drivers/STM32F0xx_HAL_Driver/Src/stm32f0xx_hal_pcd.c ****   }
 2311              		.loc 1 1522 0
 2312 0026 FF33     		adds	r3, r3, #255
1521:Drivers/STM32F0xx_HAL_Driver/Src/stm32f0xx_hal_pcd.c ****     ep->is_in = 0U;
 2313              		.loc 1 1521 0
 2314 0028 AA18     		adds	r2, r5, r2
 2315              	.LVL208:
1522:Drivers/STM32F0xx_HAL_Driver/Src/stm32f0xx_hal_pcd.c ****   }
 2316              		.loc 1 1522 0
 2317 002a 1970     		strb	r1, [r3]
 2318              	.L179:
1525:Drivers/STM32F0xx_HAL_Driver/Src/stm32f0xx_hal_pcd.c ****   ep->num = ep_addr & EP_ADDR_MSK;
 2319              		.loc 1 1525 0
 2320 002c 0121     		movs	r1, #1
1528:Drivers/STM32F0xx_HAL_Driver/Src/stm32f0xx_hal_pcd.c **** 
 2321              		.loc 1 1528 0
 2322 002e 8A23     		movs	r3, #138
1525:Drivers/STM32F0xx_HAL_Driver/Src/stm32f0xx_hal_pcd.c ****   ep->num = ep_addr & EP_ADDR_MSK;
 2323              		.loc 1 1525 0
 2324 0030 9170     		strb	r1, [r2, #2]
1526:Drivers/STM32F0xx_HAL_Driver/Src/stm32f0xx_hal_pcd.c **** 
 2325              		.loc 1 1526 0
 2326 0032 1470     		strb	r4, [r2]
1528:Drivers/STM32F0xx_HAL_Driver/Src/stm32f0xx_hal_pcd.c **** 
 2327              		.loc 1 1528 0
 2328 0034 9B00     		lsls	r3, r3, #2
 2329 0036 EE5C     		ldrb	r6, [r5, r3]
 2330 0038 0220     		movs	r0, #2
 2331 003a 012E     		cmp	r6, #1
 2332 003c 0BD0     		beq	.L177
1528:Drivers/STM32F0xx_HAL_Driver/Src/stm32f0xx_hal_pcd.c **** 
 2333              		.loc 1 1528 0 is_stmt 0 discriminator 2
 2334 003e E954     		strb	r1, [r5, r3]
1530:Drivers/STM32F0xx_HAL_Driver/Src/stm32f0xx_hal_pcd.c ****   if ((ep_addr & EP_ADDR_MSK) == 0U)
 2335              		.loc 1 1530 0 is_stmt 1 discriminator 2
 2336 0040 2868     		ldr	r0, [r5]
 2337 0042 1100     		movs	r1, r2
 2338 0044 FFF7FEFF 		bl	USB_EPSetStall
 2339              	.LVL209:
1531:Drivers/STM32F0xx_HAL_Driver/Src/stm32f0xx_hal_pcd.c ****   {
 2340              		.loc 1 1531 0 discriminator 2
 2341 0048 002C     		cmp	r4, #0
 2342 004a 0DD0     		beq	.L185
 2343              	.L180:
1535:Drivers/STM32F0xx_HAL_Driver/Src/stm32f0xx_hal_pcd.c **** 
 2344              		.loc 1 1535 0
 2345 004c 8A23     		movs	r3, #138
 2346 004e 0022     		movs	r2, #0
1537:Drivers/STM32F0xx_HAL_Driver/Src/stm32f0xx_hal_pcd.c **** }
 2347              		.loc 1 1537 0
 2348 0050 0020     		movs	r0, #0
1535:Drivers/STM32F0xx_HAL_Driver/Src/stm32f0xx_hal_pcd.c **** 
 2349              		.loc 1 1535 0
 2350 0052 9B00     		lsls	r3, r3, #2
 2351 0054 EA54     		strb	r2, [r5, r3]
 2352              	.L177:
ARM GAS  /tmp/ccTcoz65.s 			page 78


1538:Drivers/STM32F0xx_HAL_Driver/Src/stm32f0xx_hal_pcd.c **** 
 2353              		.loc 1 1538 0
 2354              		@ sp needed
 2355              	.LVL210:
 2356 0056 70BD     		pop	{r4, r5, r6, pc}
 2357              	.LVL211:
 2358              	.L184:
1516:Drivers/STM32F0xx_HAL_Driver/Src/stm32f0xx_hal_pcd.c ****     ep->is_in = 1U;
 2359              		.loc 1 1516 0
 2360 0058 6301     		lsls	r3, r4, #5
 2361 005a 1A00     		movs	r2, r3
1517:Drivers/STM32F0xx_HAL_Driver/Src/stm32f0xx_hal_pcd.c ****   }
 2362              		.loc 1 1517 0
 2363 005c EB18     		adds	r3, r5, r3
1516:Drivers/STM32F0xx_HAL_Driver/Src/stm32f0xx_hal_pcd.c ****     ep->is_in = 1U;
 2364              		.loc 1 1516 0
 2365 005e 2832     		adds	r2, r2, #40
1517:Drivers/STM32F0xx_HAL_Driver/Src/stm32f0xx_hal_pcd.c ****   }
 2366              		.loc 1 1517 0
 2367 0060 2933     		adds	r3, r3, #41
1516:Drivers/STM32F0xx_HAL_Driver/Src/stm32f0xx_hal_pcd.c ****     ep->is_in = 1U;
 2368              		.loc 1 1516 0
 2369 0062 AA18     		adds	r2, r5, r2
 2370              	.LVL212:
1517:Drivers/STM32F0xx_HAL_Driver/Src/stm32f0xx_hal_pcd.c ****   }
 2371              		.loc 1 1517 0
 2372 0064 1870     		strb	r0, [r3]
 2373 0066 E1E7     		b	.L179
 2374              	.LVL213:
 2375              	.L185:
1533:Drivers/STM32F0xx_HAL_Driver/Src/stm32f0xx_hal_pcd.c ****   }
 2376              		.loc 1 1533 0
 2377 0068 8C23     		movs	r3, #140
 2378 006a 9B00     		lsls	r3, r3, #2
 2379 006c E918     		adds	r1, r5, r3
 2380 006e 2868     		ldr	r0, [r5]
 2381 0070 FFF7FEFF 		bl	USB_EP0_OutStart
 2382              	.LVL214:
 2383 0074 EAE7     		b	.L180
 2384              		.cfi_endproc
 2385              	.LFE66:
 2387 0076 C046     		.section	.text.HAL_PCD_EP_ClrStall,"ax",%progbits
 2388              		.align	2
 2389              		.global	HAL_PCD_EP_ClrStall
 2390              		.code	16
 2391              		.thumb_func
 2393              	HAL_PCD_EP_ClrStall:
 2394              	.LFB67:
1547:Drivers/STM32F0xx_HAL_Driver/Src/stm32f0xx_hal_pcd.c ****   PCD_EPTypeDef *ep;
 2395              		.loc 1 1547 0
 2396              		.cfi_startproc
 2397              		@ args = 0, pretend = 0, frame = 0
 2398              		@ frame_needed = 0, uses_anonymous_args = 0
 2399              	.LVL215:
 2400 0000 70B5     		push	{r4, r5, r6, lr}
 2401              	.LCFI16:
 2402              		.cfi_def_cfa_offset 16
ARM GAS  /tmp/ccTcoz65.s 			page 79


 2403              		.cfi_offset 4, -16
 2404              		.cfi_offset 5, -12
 2405              		.cfi_offset 6, -8
 2406              		.cfi_offset 14, -4
1547:Drivers/STM32F0xx_HAL_Driver/Src/stm32f0xx_hal_pcd.c ****   PCD_EPTypeDef *ep;
 2407              		.loc 1 1547 0
 2408 0002 0400     		movs	r4, r0
1550:Drivers/STM32F0xx_HAL_Driver/Src/stm32f0xx_hal_pcd.c ****   {
 2409              		.loc 1 1550 0
 2410 0004 0F23     		movs	r3, #15
 2411 0006 6268     		ldr	r2, [r4, #4]
 2412 0008 0B40     		ands	r3, r1
1552:Drivers/STM32F0xx_HAL_Driver/Src/stm32f0xx_hal_pcd.c ****   }
 2413              		.loc 1 1552 0
 2414 000a 0120     		movs	r0, #1
 2415              	.LVL216:
1550:Drivers/STM32F0xx_HAL_Driver/Src/stm32f0xx_hal_pcd.c ****   {
 2416              		.loc 1 1550 0
 2417 000c 9342     		cmp	r3, r2
 2418 000e 1FD8     		bhi	.L187
1555:Drivers/STM32F0xx_HAL_Driver/Src/stm32f0xx_hal_pcd.c ****   {
 2419              		.loc 1 1555 0
 2420 0010 4BB2     		sxtb	r3, r1
 2421 0012 002B     		cmp	r3, #0
 2422 0014 1DDB     		blt	.L193
 2423 0016 0723     		movs	r3, #7
 2424 0018 1940     		ands	r1, r3
 2425              	.LVL217:
1562:Drivers/STM32F0xx_HAL_Driver/Src/stm32f0xx_hal_pcd.c ****     ep->is_in = 0U;
 2426              		.loc 1 1562 0
 2427 001a 4A01     		lsls	r2, r1, #5
 2428 001c 1300     		movs	r3, r2
1563:Drivers/STM32F0xx_HAL_Driver/Src/stm32f0xx_hal_pcd.c ****   }
 2429              		.loc 1 1563 0
 2430 001e 0020     		movs	r0, #0
 2431 0020 A218     		adds	r2, r4, r2
1562:Drivers/STM32F0xx_HAL_Driver/Src/stm32f0xx_hal_pcd.c ****     ep->is_in = 0U;
 2432              		.loc 1 1562 0
 2433 0022 2933     		adds	r3, r3, #41
1563:Drivers/STM32F0xx_HAL_Driver/Src/stm32f0xx_hal_pcd.c ****   }
 2434              		.loc 1 1563 0
 2435 0024 2A32     		adds	r2, r2, #42
1562:Drivers/STM32F0xx_HAL_Driver/Src/stm32f0xx_hal_pcd.c ****     ep->is_in = 0U;
 2436              		.loc 1 1562 0
 2437 0026 FF33     		adds	r3, r3, #255
1563:Drivers/STM32F0xx_HAL_Driver/Src/stm32f0xx_hal_pcd.c ****   }
 2438              		.loc 1 1563 0
 2439 0028 FF32     		adds	r2, r2, #255
1562:Drivers/STM32F0xx_HAL_Driver/Src/stm32f0xx_hal_pcd.c ****     ep->is_in = 0U;
 2440              		.loc 1 1562 0
 2441 002a E318     		adds	r3, r4, r3
 2442              	.LVL218:
1563:Drivers/STM32F0xx_HAL_Driver/Src/stm32f0xx_hal_pcd.c ****   }
 2443              		.loc 1 1563 0
 2444 002c 1070     		strb	r0, [r2]
 2445              	.L189:
1566:Drivers/STM32F0xx_HAL_Driver/Src/stm32f0xx_hal_pcd.c ****   ep->num = ep_addr & EP_ADDR_MSK;
ARM GAS  /tmp/ccTcoz65.s 			page 80


 2446              		.loc 1 1566 0
 2447 002e 0026     		movs	r6, #0
1569:Drivers/STM32F0xx_HAL_Driver/Src/stm32f0xx_hal_pcd.c ****   (void)USB_EPClearStall(hpcd->Instance, ep);
 2448              		.loc 1 1569 0
 2449 0030 8A25     		movs	r5, #138
1566:Drivers/STM32F0xx_HAL_Driver/Src/stm32f0xx_hal_pcd.c ****   ep->num = ep_addr & EP_ADDR_MSK;
 2450              		.loc 1 1566 0
 2451 0032 9E70     		strb	r6, [r3, #2]
1567:Drivers/STM32F0xx_HAL_Driver/Src/stm32f0xx_hal_pcd.c **** 
 2452              		.loc 1 1567 0
 2453 0034 1970     		strb	r1, [r3]
1569:Drivers/STM32F0xx_HAL_Driver/Src/stm32f0xx_hal_pcd.c ****   (void)USB_EPClearStall(hpcd->Instance, ep);
 2454              		.loc 1 1569 0
 2455 0036 AD00     		lsls	r5, r5, #2
 2456 0038 625D     		ldrb	r2, [r4, r5]
 2457 003a 0220     		movs	r0, #2
 2458 003c 012A     		cmp	r2, #1
 2459 003e 07D0     		beq	.L187
1569:Drivers/STM32F0xx_HAL_Driver/Src/stm32f0xx_hal_pcd.c ****   (void)USB_EPClearStall(hpcd->Instance, ep);
 2460              		.loc 1 1569 0 is_stmt 0 discriminator 2
 2461 0040 0122     		movs	r2, #1
1570:Drivers/STM32F0xx_HAL_Driver/Src/stm32f0xx_hal_pcd.c ****   __HAL_UNLOCK(hpcd);
 2462              		.loc 1 1570 0 is_stmt 1 discriminator 2
 2463 0042 1900     		movs	r1, r3
1569:Drivers/STM32F0xx_HAL_Driver/Src/stm32f0xx_hal_pcd.c ****   (void)USB_EPClearStall(hpcd->Instance, ep);
 2464              		.loc 1 1569 0 discriminator 2
 2465 0044 6255     		strb	r2, [r4, r5]
1570:Drivers/STM32F0xx_HAL_Driver/Src/stm32f0xx_hal_pcd.c ****   __HAL_UNLOCK(hpcd);
 2466              		.loc 1 1570 0 discriminator 2
 2467 0046 2068     		ldr	r0, [r4]
 2468 0048 FFF7FEFF 		bl	USB_EPClearStall
 2469              	.LVL219:
1573:Drivers/STM32F0xx_HAL_Driver/Src/stm32f0xx_hal_pcd.c **** }
 2470              		.loc 1 1573 0 discriminator 2
 2471 004c 0020     		movs	r0, #0
1571:Drivers/STM32F0xx_HAL_Driver/Src/stm32f0xx_hal_pcd.c **** 
 2472              		.loc 1 1571 0 discriminator 2
 2473 004e 6655     		strb	r6, [r4, r5]
 2474              	.L187:
1574:Drivers/STM32F0xx_HAL_Driver/Src/stm32f0xx_hal_pcd.c **** 
 2475              		.loc 1 1574 0
 2476              		@ sp needed
 2477              	.LVL220:
 2478 0050 70BD     		pop	{r4, r5, r6, pc}
 2479              	.LVL221:
 2480              	.L193:
 2481 0052 0723     		movs	r3, #7
 2482 0054 1940     		ands	r1, r3
 2483              	.LVL222:
1557:Drivers/STM32F0xx_HAL_Driver/Src/stm32f0xx_hal_pcd.c ****     ep->is_in = 1U;
 2484              		.loc 1 1557 0
 2485 0056 4A01     		lsls	r2, r1, #5
 2486 0058 1300     		movs	r3, r2
1558:Drivers/STM32F0xx_HAL_Driver/Src/stm32f0xx_hal_pcd.c ****   }
 2487              		.loc 1 1558 0
 2488 005a A218     		adds	r2, r4, r2
1557:Drivers/STM32F0xx_HAL_Driver/Src/stm32f0xx_hal_pcd.c ****     ep->is_in = 1U;
ARM GAS  /tmp/ccTcoz65.s 			page 81


 2489              		.loc 1 1557 0
 2490 005c 2833     		adds	r3, r3, #40
1558:Drivers/STM32F0xx_HAL_Driver/Src/stm32f0xx_hal_pcd.c ****   }
 2491              		.loc 1 1558 0
 2492 005e 2932     		adds	r2, r2, #41
1557:Drivers/STM32F0xx_HAL_Driver/Src/stm32f0xx_hal_pcd.c ****     ep->is_in = 1U;
 2493              		.loc 1 1557 0
 2494 0060 E318     		adds	r3, r4, r3
 2495              	.LVL223:
1558:Drivers/STM32F0xx_HAL_Driver/Src/stm32f0xx_hal_pcd.c ****   }
 2496              		.loc 1 1558 0
 2497 0062 1070     		strb	r0, [r2]
 2498 0064 E3E7     		b	.L189
 2499              		.cfi_endproc
 2500              	.LFE67:
 2502 0066 C046     		.section	.text.HAL_PCD_EP_Flush,"ax",%progbits
 2503              		.align	2
 2504              		.global	HAL_PCD_EP_Flush
 2505              		.code	16
 2506              		.thumb_func
 2508              	HAL_PCD_EP_Flush:
 2509              	.LFB68:
1583:Drivers/STM32F0xx_HAL_Driver/Src/stm32f0xx_hal_pcd.c ****   /* Prevent unused argument(s) compilation warning */
 2510              		.loc 1 1583 0
 2511              		.cfi_startproc
 2512              		@ args = 0, pretend = 0, frame = 0
 2513              		@ frame_needed = 0, uses_anonymous_args = 0
 2514              		@ link register save eliminated.
 2515              	.LVL224:
1589:Drivers/STM32F0xx_HAL_Driver/Src/stm32f0xx_hal_pcd.c **** 
 2516              		.loc 1 1589 0
 2517 0000 0020     		movs	r0, #0
 2518              	.LVL225:
 2519              		@ sp needed
 2520 0002 7047     		bx	lr
 2521              		.cfi_endproc
 2522              	.LFE68:
 2524              		.section	.text.HAL_PCD_ActivateRemoteWakeup,"ax",%progbits
 2525              		.align	2
 2526              		.global	HAL_PCD_ActivateRemoteWakeup
 2527              		.code	16
 2528              		.thumb_func
 2530              	HAL_PCD_ActivateRemoteWakeup:
 2531              	.LFB69:
1597:Drivers/STM32F0xx_HAL_Driver/Src/stm32f0xx_hal_pcd.c ****   return (USB_ActivateRemoteWakeup(hpcd->Instance));
 2532              		.loc 1 1597 0
 2533              		.cfi_startproc
 2534              		@ args = 0, pretend = 0, frame = 0
 2535              		@ frame_needed = 0, uses_anonymous_args = 0
 2536              	.LVL226:
 2537 0000 10B5     		push	{r4, lr}
 2538              	.LCFI17:
 2539              		.cfi_def_cfa_offset 8
 2540              		.cfi_offset 4, -8
 2541              		.cfi_offset 14, -4
1598:Drivers/STM32F0xx_HAL_Driver/Src/stm32f0xx_hal_pcd.c **** }
 2542              		.loc 1 1598 0
ARM GAS  /tmp/ccTcoz65.s 			page 82


 2543 0002 0068     		ldr	r0, [r0]
 2544              	.LVL227:
 2545 0004 FFF7FEFF 		bl	USB_ActivateRemoteWakeup
 2546              	.LVL228:
1599:Drivers/STM32F0xx_HAL_Driver/Src/stm32f0xx_hal_pcd.c **** 
 2547              		.loc 1 1599 0
 2548              		@ sp needed
 2549 0008 10BD     		pop	{r4, pc}
 2550              		.cfi_endproc
 2551              	.LFE69:
 2553 000a C046     		.section	.text.HAL_PCD_DeActivateRemoteWakeup,"ax",%progbits
 2554              		.align	2
 2555              		.global	HAL_PCD_DeActivateRemoteWakeup
 2556              		.code	16
 2557              		.thumb_func
 2559              	HAL_PCD_DeActivateRemoteWakeup:
 2560              	.LFB70:
1607:Drivers/STM32F0xx_HAL_Driver/Src/stm32f0xx_hal_pcd.c ****   return (USB_DeActivateRemoteWakeup(hpcd->Instance));
 2561              		.loc 1 1607 0
 2562              		.cfi_startproc
 2563              		@ args = 0, pretend = 0, frame = 0
 2564              		@ frame_needed = 0, uses_anonymous_args = 0
 2565              	.LVL229:
 2566 0000 10B5     		push	{r4, lr}
 2567              	.LCFI18:
 2568              		.cfi_def_cfa_offset 8
 2569              		.cfi_offset 4, -8
 2570              		.cfi_offset 14, -4
1608:Drivers/STM32F0xx_HAL_Driver/Src/stm32f0xx_hal_pcd.c **** }
 2571              		.loc 1 1608 0
 2572 0002 0068     		ldr	r0, [r0]
 2573              	.LVL230:
 2574 0004 FFF7FEFF 		bl	USB_DeActivateRemoteWakeup
 2575              	.LVL231:
1609:Drivers/STM32F0xx_HAL_Driver/Src/stm32f0xx_hal_pcd.c **** 
 2576              		.loc 1 1609 0
 2577              		@ sp needed
 2578 0008 10BD     		pop	{r4, pc}
 2579              		.cfi_endproc
 2580              	.LFE70:
 2582 000a C046     		.section	.text.HAL_PCD_GetState,"ax",%progbits
 2583              		.align	2
 2584              		.global	HAL_PCD_GetState
 2585              		.code	16
 2586              		.thumb_func
 2588              	HAL_PCD_GetState:
 2589              	.LFB71:
1636:Drivers/STM32F0xx_HAL_Driver/Src/stm32f0xx_hal_pcd.c ****   return hpcd->State;
 2590              		.loc 1 1636 0
 2591              		.cfi_startproc
 2592              		@ args = 0, pretend = 0, frame = 0
 2593              		@ frame_needed = 0, uses_anonymous_args = 0
 2594              		@ link register save eliminated.
 2595              	.LVL232:
1637:Drivers/STM32F0xx_HAL_Driver/Src/stm32f0xx_hal_pcd.c **** }
 2596              		.loc 1 1637 0
 2597 0000 014B     		ldr	r3, .L198
ARM GAS  /tmp/ccTcoz65.s 			page 83


1638:Drivers/STM32F0xx_HAL_Driver/Src/stm32f0xx_hal_pcd.c **** 
 2598              		.loc 1 1638 0
 2599              		@ sp needed
1637:Drivers/STM32F0xx_HAL_Driver/Src/stm32f0xx_hal_pcd.c **** }
 2600              		.loc 1 1637 0
 2601 0002 C05C     		ldrb	r0, [r0, r3]
 2602              	.LVL233:
 2603 0004 C0B2     		uxtb	r0, r0
1638:Drivers/STM32F0xx_HAL_Driver/Src/stm32f0xx_hal_pcd.c **** 
 2604              		.loc 1 1638 0
 2605 0006 7047     		bx	lr
 2606              	.L199:
 2607              		.align	2
 2608              	.L198:
 2609 0008 29020000 		.word	553
 2610              		.cfi_endproc
 2611              	.LFE71:
 2613              		.text
 2614              	.Letext0:
 2615              		.file 2 "/opt/gcc-arm-none-eabi-5_4-2016q3/arm-none-eabi/include/machine/_default_types.h"
 2616              		.file 3 "/opt/gcc-arm-none-eabi-5_4-2016q3/arm-none-eabi/include/sys/_stdint.h"
 2617              		.file 4 "Drivers/CMSIS/Device/ST/STM32F0xx/Include/stm32f042x6.h"
 2618              		.file 5 "Drivers/STM32F0xx_HAL_Driver/Inc/stm32f0xx_hal_def.h"
 2619              		.file 6 "Drivers/STM32F0xx_HAL_Driver/Inc/stm32f0xx_ll_usb.h"
 2620              		.file 7 "Drivers/STM32F0xx_HAL_Driver/Inc/stm32f0xx_hal_pcd.h"
 2621              		.file 8 "Drivers/STM32F0xx_HAL_Driver/Inc/stm32f0xx_hal_pcd_ex.h"
ARM GAS  /tmp/ccTcoz65.s 			page 84


DEFINED SYMBOLS
                            *ABS*:00000000 stm32f0xx_hal_pcd.c
     /tmp/ccTcoz65.s:20     .text.HAL_PCD_MspInit:00000000 $t
     /tmp/ccTcoz65.s:25     .text.HAL_PCD_MspInit:00000000 HAL_PCD_MspInit
     /tmp/ccTcoz65.s:37     .text.HAL_PCD_Init:00000000 $t
     /tmp/ccTcoz65.s:42     .text.HAL_PCD_Init:00000000 HAL_PCD_Init
     /tmp/ccTcoz65.s:230    .text.HAL_PCD_Init:000000cc $d
     /tmp/ccTcoz65.s:235    .text.HAL_PCD_MspDeInit:00000000 $t
     /tmp/ccTcoz65.s:240    .text.HAL_PCD_MspDeInit:00000000 HAL_PCD_MspDeInit
     /tmp/ccTcoz65.s:252    .text.HAL_PCD_DeInit:00000000 $t
     /tmp/ccTcoz65.s:257    .text.HAL_PCD_DeInit:00000000 HAL_PCD_DeInit
     /tmp/ccTcoz65.s:349    .text.HAL_PCD_DeInit:00000040 $d
     /tmp/ccTcoz65.s:354    .text.HAL_PCD_Start:00000000 $t
     /tmp/ccTcoz65.s:359    .text.HAL_PCD_Start:00000000 HAL_PCD_Start
     /tmp/ccTcoz65.s:412    .text.HAL_PCD_Stop:00000000 $t
     /tmp/ccTcoz65.s:417    .text.HAL_PCD_Stop:00000000 HAL_PCD_Stop
     /tmp/ccTcoz65.s:473    .text.HAL_PCD_DataOutStageCallback:00000000 $t
     /tmp/ccTcoz65.s:478    .text.HAL_PCD_DataOutStageCallback:00000000 HAL_PCD_DataOutStageCallback
     /tmp/ccTcoz65.s:490    .text.HAL_PCD_DataInStageCallback:00000000 $t
     /tmp/ccTcoz65.s:495    .text.HAL_PCD_DataInStageCallback:00000000 HAL_PCD_DataInStageCallback
     /tmp/ccTcoz65.s:507    .text.HAL_PCD_SetupStageCallback:00000000 $t
     /tmp/ccTcoz65.s:512    .text.HAL_PCD_SetupStageCallback:00000000 HAL_PCD_SetupStageCallback
     /tmp/ccTcoz65.s:524    .text.HAL_PCD_SOFCallback:00000000 $t
     /tmp/ccTcoz65.s:529    .text.HAL_PCD_SOFCallback:00000000 HAL_PCD_SOFCallback
     /tmp/ccTcoz65.s:541    .text.HAL_PCD_ResetCallback:00000000 $t
     /tmp/ccTcoz65.s:546    .text.HAL_PCD_ResetCallback:00000000 HAL_PCD_ResetCallback
     /tmp/ccTcoz65.s:558    .text.HAL_PCD_SuspendCallback:00000000 $t
     /tmp/ccTcoz65.s:563    .text.HAL_PCD_SuspendCallback:00000000 HAL_PCD_SuspendCallback
     /tmp/ccTcoz65.s:575    .text.HAL_PCD_ResumeCallback:00000000 $t
     /tmp/ccTcoz65.s:580    .text.HAL_PCD_ResumeCallback:00000000 HAL_PCD_ResumeCallback
     /tmp/ccTcoz65.s:592    .text.HAL_PCD_ISOOUTIncompleteCallback:00000000 $t
     /tmp/ccTcoz65.s:597    .text.HAL_PCD_ISOOUTIncompleteCallback:00000000 HAL_PCD_ISOOUTIncompleteCallback
     /tmp/ccTcoz65.s:609    .text.HAL_PCD_ISOINIncompleteCallback:00000000 $t
     /tmp/ccTcoz65.s:614    .text.HAL_PCD_ISOINIncompleteCallback:00000000 HAL_PCD_ISOINIncompleteCallback
     /tmp/ccTcoz65.s:629    .text.HAL_PCD_ConnectCallback:00000000 $t
     /tmp/ccTcoz65.s:634    .text.HAL_PCD_ConnectCallback:00000000 HAL_PCD_ConnectCallback
     /tmp/ccTcoz65.s:646    .text.HAL_PCD_DisconnectCallback:00000000 $t
     /tmp/ccTcoz65.s:651    .text.HAL_PCD_DisconnectCallback:00000000 HAL_PCD_DisconnectCallback
     /tmp/ccTcoz65.s:666    .text.HAL_PCD_DevConnect:00000000 $t
     /tmp/ccTcoz65.s:671    .text.HAL_PCD_DevConnect:00000000 HAL_PCD_DevConnect
     /tmp/ccTcoz65.s:720    .text.HAL_PCD_DevDisconnect:00000000 $t
     /tmp/ccTcoz65.s:725    .text.HAL_PCD_DevDisconnect:00000000 HAL_PCD_DevDisconnect
     /tmp/ccTcoz65.s:774    .text.HAL_PCD_SetAddress:00000000 $t
     /tmp/ccTcoz65.s:779    .text.HAL_PCD_SetAddress:00000000 HAL_PCD_SetAddress
     /tmp/ccTcoz65.s:832    .text.HAL_PCD_EP_Open:00000000 $t
     /tmp/ccTcoz65.s:837    .text.HAL_PCD_EP_Open:00000000 HAL_PCD_EP_Open
     /tmp/ccTcoz65.s:961    .text.HAL_PCD_EP_Close:00000000 $t
     /tmp/ccTcoz65.s:966    .text.HAL_PCD_EP_Close:00000000 HAL_PCD_EP_Close
     /tmp/ccTcoz65.s:1062   .text.HAL_PCD_EP_Receive:00000000 $t
     /tmp/ccTcoz65.s:1067   .text.HAL_PCD_EP_Receive:00000000 HAL_PCD_EP_Receive
     /tmp/ccTcoz65.s:1140   .text.HAL_PCD_EP_GetRxCount:00000000 $t
     /tmp/ccTcoz65.s:1145   .text.HAL_PCD_EP_GetRxCount:00000000 HAL_PCD_EP_GetRxCount
     /tmp/ccTcoz65.s:1169   .text.HAL_PCD_EP_Transmit:00000000 $t
     /tmp/ccTcoz65.s:1174   .text.HAL_PCD_EP_Transmit:00000000 HAL_PCD_EP_Transmit
     /tmp/ccTcoz65.s:1233   .text.HAL_PCD_IRQHandler:00000000 $t
     /tmp/ccTcoz65.s:1238   .text.HAL_PCD_IRQHandler:00000000 HAL_PCD_IRQHandler
     /tmp/ccTcoz65.s:2023   .text.HAL_PCD_IRQHandler:000003e0 $d
ARM GAS  /tmp/ccTcoz65.s 			page 85


     /tmp/ccTcoz65.s:2043   .text.HAL_PCD_IRQHandler:00000424 $t
     /tmp/ccTcoz65.s:2252   .text.HAL_PCD_IRQHandler:00000538 $d
     /tmp/ccTcoz65.s:2261   .text.HAL_PCD_EP_SetStall:00000000 $t
     /tmp/ccTcoz65.s:2266   .text.HAL_PCD_EP_SetStall:00000000 HAL_PCD_EP_SetStall
     /tmp/ccTcoz65.s:2388   .text.HAL_PCD_EP_ClrStall:00000000 $t
     /tmp/ccTcoz65.s:2393   .text.HAL_PCD_EP_ClrStall:00000000 HAL_PCD_EP_ClrStall
     /tmp/ccTcoz65.s:2503   .text.HAL_PCD_EP_Flush:00000000 $t
     /tmp/ccTcoz65.s:2508   .text.HAL_PCD_EP_Flush:00000000 HAL_PCD_EP_Flush
     /tmp/ccTcoz65.s:2525   .text.HAL_PCD_ActivateRemoteWakeup:00000000 $t
     /tmp/ccTcoz65.s:2530   .text.HAL_PCD_ActivateRemoteWakeup:00000000 HAL_PCD_ActivateRemoteWakeup
     /tmp/ccTcoz65.s:2554   .text.HAL_PCD_DeActivateRemoteWakeup:00000000 $t
     /tmp/ccTcoz65.s:2559   .text.HAL_PCD_DeActivateRemoteWakeup:00000000 HAL_PCD_DeActivateRemoteWakeup
     /tmp/ccTcoz65.s:2583   .text.HAL_PCD_GetState:00000000 $t
     /tmp/ccTcoz65.s:2588   .text.HAL_PCD_GetState:00000000 HAL_PCD_GetState
     /tmp/ccTcoz65.s:2609   .text.HAL_PCD_GetState:00000008 $d
                     .debug_frame:00000010 $d

UNDEFINED SYMBOLS
USB_DisableGlobalInt
USB_DevInit
HAL_PCDEx_ActivateLPM
USB_StopDevice
USB_DevConnect
USB_EnableGlobalInt
USB_DevDisconnect
USB_SetDevAddress
USB_ActivateEndpoint
USB_DeactivateEndpoint
USB_EPStartXfer
USB_ReadInterrupts
HAL_PCDEx_LPM_Callback
USB_ReadPMA
USB_EPSetStall
USB_EP0_OutStart
USB_EPClearStall
USB_ActivateRemoteWakeup
USB_DeActivateRemoteWakeup
