ARM GAS  /tmp/ccXGHdSl.s 			page 1


   1              		.syntax unified
   2              		.cpu cortex-m0
   3              		.fpu softvfp
   4              		.eabi_attribute 20, 1
   5              		.eabi_attribute 21, 1
   6              		.eabi_attribute 23, 3
   7              		.eabi_attribute 24, 1
   8              		.eabi_attribute 25, 1
   9              		.eabi_attribute 26, 1
  10              		.eabi_attribute 30, 2
  11              		.eabi_attribute 34, 0
  12              		.eabi_attribute 18, 4
  13              		.thumb
  14              		.syntax unified
  15              		.file	"usb_device.c"
  16              		.text
  17              	.Ltext0:
  18              		.cfi_sections	.debug_frame
  19              		.section	.text.MX_USB_DEVICE_Init,"ax",%progbits
  20              		.align	2
  21              		.global	MX_USB_DEVICE_Init
  22              		.code	16
  23              		.thumb_func
  25              	MX_USB_DEVICE_Init:
  26              	.LFB41:
  27              		.file 1 "Src/usb_device.c"
   1:Src/usb_device.c **** /* USER CODE BEGIN Header */
   2:Src/usb_device.c **** /**
   3:Src/usb_device.c ****   ******************************************************************************
   4:Src/usb_device.c ****   * @file           : usb_device.c
   5:Src/usb_device.c ****   * @version        : v2.0_Cube
   6:Src/usb_device.c ****   * @brief          : This file implements the USB Device
   7:Src/usb_device.c ****   ******************************************************************************
   8:Src/usb_device.c ****   * @attention
   9:Src/usb_device.c ****   *
  10:Src/usb_device.c ****   * <h2><center>&copy; Copyright (c) 2019 STMicroelectronics.
  11:Src/usb_device.c ****   * All rights reserved.</center></h2>
  12:Src/usb_device.c ****   *
  13:Src/usb_device.c ****   * This software component is licensed by ST under Ultimate Liberty license
  14:Src/usb_device.c ****   * SLA0044, the "License"; You may not use this file except in compliance with
  15:Src/usb_device.c ****   * the License. You may obtain a copy of the License at:
  16:Src/usb_device.c ****   *                             www.st.com/SLA0044
  17:Src/usb_device.c ****   *
  18:Src/usb_device.c ****   ******************************************************************************
  19:Src/usb_device.c ****   */
  20:Src/usb_device.c **** /* USER CODE END Header */
  21:Src/usb_device.c **** 
  22:Src/usb_device.c **** /* Includes ------------------------------------------------------------------*/
  23:Src/usb_device.c **** 
  24:Src/usb_device.c **** #include "usb_device.h"
  25:Src/usb_device.c **** #include "usbd_core.h"
  26:Src/usb_device.c **** #include "usbd_desc.h"
  27:Src/usb_device.c **** #include "usbd_cdc.h"
  28:Src/usb_device.c **** #include "usbd_cdc_if.h"
  29:Src/usb_device.c **** 
  30:Src/usb_device.c **** /* USER CODE BEGIN Includes */
  31:Src/usb_device.c **** 
ARM GAS  /tmp/ccXGHdSl.s 			page 2


  32:Src/usb_device.c **** /* USER CODE END Includes */
  33:Src/usb_device.c **** 
  34:Src/usb_device.c **** /* USER CODE BEGIN PV */
  35:Src/usb_device.c **** /* Private variables ---------------------------------------------------------*/
  36:Src/usb_device.c **** 
  37:Src/usb_device.c **** /* USER CODE END PV */
  38:Src/usb_device.c **** 
  39:Src/usb_device.c **** /* USER CODE BEGIN PFP */
  40:Src/usb_device.c **** /* Private function prototypes -----------------------------------------------*/
  41:Src/usb_device.c **** 
  42:Src/usb_device.c **** /* USER CODE END PFP */
  43:Src/usb_device.c **** 
  44:Src/usb_device.c **** /* USB Device Core handle declaration. */
  45:Src/usb_device.c **** USBD_HandleTypeDef hUsbDeviceFS;
  46:Src/usb_device.c **** 
  47:Src/usb_device.c **** /*
  48:Src/usb_device.c ****  * -- Insert your variables declaration here --
  49:Src/usb_device.c ****  */
  50:Src/usb_device.c **** /* USER CODE BEGIN 0 */
  51:Src/usb_device.c **** 
  52:Src/usb_device.c **** /* USER CODE END 0 */
  53:Src/usb_device.c **** 
  54:Src/usb_device.c **** /*
  55:Src/usb_device.c ****  * -- Insert your external function declaration here --
  56:Src/usb_device.c ****  */
  57:Src/usb_device.c **** /* USER CODE BEGIN 1 */
  58:Src/usb_device.c **** 
  59:Src/usb_device.c **** /* USER CODE END 1 */
  60:Src/usb_device.c **** 
  61:Src/usb_device.c **** /**
  62:Src/usb_device.c ****   * Init USB device Library, add supported class and start the library
  63:Src/usb_device.c ****   * @retval None
  64:Src/usb_device.c ****   */
  65:Src/usb_device.c **** void MX_USB_DEVICE_Init(void)
  66:Src/usb_device.c **** {
  28              		.loc 1 66 0
  29              		.cfi_startproc
  30              		@ args = 0, pretend = 0, frame = 0
  31              		@ frame_needed = 0, uses_anonymous_args = 0
  32 0000 10B5     		push	{r4, lr}
  33              	.LCFI0:
  34              		.cfi_def_cfa_offset 8
  35              		.cfi_offset 4, -8
  36              		.cfi_offset 14, -4
  67:Src/usb_device.c ****   /* USER CODE BEGIN USB_DEVICE_Init_PreTreatment */
  68:Src/usb_device.c ****   
  69:Src/usb_device.c ****   /* USER CODE END USB_DEVICE_Init_PreTreatment */
  70:Src/usb_device.c ****   
  71:Src/usb_device.c ****   /* Init Device Library, add supported class and start the library. */
  72:Src/usb_device.c ****   if (USBD_Init(&hUsbDeviceFS, &FS_Desc, DEVICE_FS) != USBD_OK)
  37              		.loc 1 72 0
  38 0002 124C     		ldr	r4, .L22
  39 0004 0022     		movs	r2, #0
  40 0006 1249     		ldr	r1, .L22+4
  41 0008 2000     		movs	r0, r4
  42 000a FFF7FEFF 		bl	USBD_Init
  43              	.LVL0:
ARM GAS  /tmp/ccXGHdSl.s 			page 3


  44 000e 0028     		cmp	r0, #0
  45 0010 19D1     		bne	.L19
  46              	.L2:
  73:Src/usb_device.c ****   {
  74:Src/usb_device.c ****     Error_Handler();
  75:Src/usb_device.c ****   }
  76:Src/usb_device.c ****   if (USBD_RegisterClass(&hUsbDeviceFS, &USBD_CDC) != USBD_OK)
  47              		.loc 1 76 0
  48 0012 1049     		ldr	r1, .L22+8
  49 0014 2000     		movs	r0, r4
  50 0016 FFF7FEFF 		bl	USBD_RegisterClass
  51              	.LVL1:
  52 001a 0028     		cmp	r0, #0
  53 001c 10D1     		bne	.L20
  54              	.L3:
  77:Src/usb_device.c ****   {
  78:Src/usb_device.c ****     Error_Handler();
  79:Src/usb_device.c ****   }
  80:Src/usb_device.c ****   if (USBD_CDC_RegisterInterface(&hUsbDeviceFS, &USBD_Interface_fops_FS) != USBD_OK)
  55              		.loc 1 80 0
  56 001e 0E49     		ldr	r1, .L22+12
  57 0020 2000     		movs	r0, r4
  58 0022 FFF7FEFF 		bl	USBD_CDC_RegisterInterface
  59              	.LVL2:
  60 0026 0028     		cmp	r0, #0
  61 0028 07D1     		bne	.L21
  62              	.L4:
  81:Src/usb_device.c ****   {
  82:Src/usb_device.c ****     Error_Handler();
  83:Src/usb_device.c ****   }
  84:Src/usb_device.c ****   if (USBD_Start(&hUsbDeviceFS) != USBD_OK)
  63              		.loc 1 84 0
  64 002a 2000     		movs	r0, r4
  65 002c FFF7FEFF 		bl	USBD_Start
  66              	.LVL3:
  67 0030 0028     		cmp	r0, #0
  68 0032 01D0     		beq	.L1
  85:Src/usb_device.c ****   {
  86:Src/usb_device.c ****     Error_Handler();
  69              		.loc 1 86 0
  70 0034 FFF7FEFF 		bl	Error_Handler
  71              	.LVL4:
  72              	.L1:
  87:Src/usb_device.c ****   }
  88:Src/usb_device.c **** 
  89:Src/usb_device.c ****   /* USER CODE BEGIN USB_DEVICE_Init_PostTreatment */
  90:Src/usb_device.c ****   
  91:Src/usb_device.c ****   /* USER CODE END USB_DEVICE_Init_PostTreatment */
  92:Src/usb_device.c **** }
  73              		.loc 1 92 0
  74              		@ sp needed
  75 0038 10BD     		pop	{r4, pc}
  76              	.L21:
  82:Src/usb_device.c ****   }
  77              		.loc 1 82 0
  78 003a FFF7FEFF 		bl	Error_Handler
  79              	.LVL5:
ARM GAS  /tmp/ccXGHdSl.s 			page 4


  80 003e F4E7     		b	.L4
  81              	.L20:
  78:Src/usb_device.c ****   }
  82              		.loc 1 78 0
  83 0040 FFF7FEFF 		bl	Error_Handler
  84              	.LVL6:
  85 0044 EBE7     		b	.L3
  86              	.L19:
  74:Src/usb_device.c ****   }
  87              		.loc 1 74 0
  88 0046 FFF7FEFF 		bl	Error_Handler
  89              	.LVL7:
  90 004a E2E7     		b	.L2
  91              	.L23:
  92              		.align	2
  93              	.L22:
  94 004c 00000000 		.word	hUsbDeviceFS
  95 0050 00000000 		.word	FS_Desc
  96 0054 00000000 		.word	USBD_CDC
  97 0058 00000000 		.word	USBD_Interface_fops_FS
  98              		.cfi_endproc
  99              	.LFE41:
 101              		.comm	hUsbDeviceFS,708,4
 102              		.text
 103              	.Letext0:
 104              		.file 2 "/opt/gcc-arm-none-eabi-5_4-2016q3/arm-none-eabi/include/machine/_default_types.h"
 105              		.file 3 "/opt/gcc-arm-none-eabi-5_4-2016q3/arm-none-eabi/include/sys/_stdint.h"
 106              		.file 4 "Middlewares/ST/STM32_USB_Device_Library/Core/Inc/usbd_def.h"
 107              		.file 5 "Middlewares/ST/STM32_USB_Device_Library/Class/CDC/Inc/usbd_cdc.h"
 108              		.file 6 "Inc/usbd_desc.h"
 109              		.file 7 "Inc/usbd_cdc_if.h"
 110              		.file 8 "Middlewares/ST/STM32_USB_Device_Library/Core/Inc/usbd_core.h"
 111              		.file 9 "Inc/main.h"
ARM GAS  /tmp/ccXGHdSl.s 			page 5


DEFINED SYMBOLS
                            *ABS*:00000000 usb_device.c
     /tmp/ccXGHdSl.s:20     .text.MX_USB_DEVICE_Init:00000000 $t
     /tmp/ccXGHdSl.s:25     .text.MX_USB_DEVICE_Init:00000000 MX_USB_DEVICE_Init
     /tmp/ccXGHdSl.s:94     .text.MX_USB_DEVICE_Init:0000004c $d
                            *COM*:000002c4 hUsbDeviceFS
                     .debug_frame:00000010 $d

UNDEFINED SYMBOLS
USBD_Init
USBD_RegisterClass
USBD_CDC_RegisterInterface
USBD_Start
Error_Handler
FS_Desc
USBD_CDC
USBD_Interface_fops_FS
